EXPORTS
	?DoActivateL@CGlxViewBase@@EAEXABVTVwsViewId@@VTUid@@ABVTDesC8@@@Z @ 1 NONAME ; void CGlxViewBase::DoActivateL(class TVwsViewId const &, class TUid, class TDesC8 const &)
	?HandleViewCommandL@CGlxViewBase@@MAEHH@Z @ 2 NONAME ; int CGlxViewBase::HandleViewCommandL(int)
	?CurrentListL@MGlxMediaListFactory@@IBEAAVMGlxMediaList@@AAVMMPXCollectionUtility@@@Z @ 3 NONAME ; class MGlxMediaList & MGlxMediaListFactory::CurrentListL(class MMPXCollectionUtility &) const
	??1CGlxMediaListViewBase@@UAE@XZ @ 4 NONAME ; CGlxMediaListViewBase::~CGlxMediaListViewBase(void)
	?AnimationComplete@CGlxViewBase@@MAEXPAVMGlxAnimation@@@Z @ 5 NONAME ; void CGlxViewBase::AnimationComplete(class MGlxAnimation *)
	?CreateMediaListL@MGlxMediaListFactory@@UBEAAVMGlxMediaList@@AAVMMPXCollectionUtility@@@Z @ 6 NONAME ; class MGlxMediaList & MGlxMediaListFactory::CreateMediaListL(class MMPXCollectionUtility &) const
	?MediaList@CGlxMediaListViewBase@@UAEAAVMGlxMediaList@@XZ @ 7 NONAME ; class MGlxMediaList & CGlxMediaListViewBase::MediaList(void)
	??0CGlxViewBase@@QAE@H@Z @ 8 NONAME ; CGlxViewBase::CGlxViewBase(int)
	?DoHandleCommandL@CGlxMediaListViewBase@@MAEHH@Z @ 9 NONAME ; int CGlxMediaListViewBase::DoHandleCommandL(int)
	?HandleTitleAvailableL@CGlxMediaListViewBase@@UAEXABVTDesC16@@@Z @ 10 NONAME ; void CGlxMediaListViewBase::HandleTitleAvailableL(class TDesC16 const &)
	?DynInitMenuPaneL@CGlxViewBase@@EAEXHPAVCEikMenuPane@@@Z @ 11 NONAME ; void CGlxViewBase::DynInitMenuPaneL(int, class CEikMenuPane *)
	?MLViewBaseConstructL@CGlxMediaListViewBase@@IAEXPAVMGlxMediaListFactory@@ABVTDesC16@@H@Z @ 12 NONAME ; void CGlxMediaListViewBase::MLViewBaseConstructL(class MGlxMediaListFactory *, class TDesC16 const &, int)
	?DoViewActivateL@CGlxMediaListViewBase@@EAEXABVTVwsViewId@@VTUid@@ABVTDesC8@@@Z @ 13 NONAME ; void CGlxMediaListViewBase::DoViewActivateL(class TVwsViewId const &, class TUid, class TDesC8 const &)
	?SetToolbarObserver@CGlxViewBase@@IAEXPAVMAknToolbarObserver@@@Z @ 14 NONAME ; void CGlxViewBase::SetToolbarObserver(class MAknToolbarObserver *)
	?ViewDynInitMenuPaneL@CGlxViewBase@@MAEXHPAVCEikMenuPane@@@Z @ 15 NONAME ; void CGlxViewBase::ViewDynInitMenuPaneL(int, class CEikMenuPane *)
	?FetchAttributesL@CGlxMediaListViewBase@@EAEXXZ @ 16 NONAME ; void CGlxMediaListViewBase::FetchAttributesL(void)
	?ViewActivatedL@CGlxViewBase@@MAEXABVTVwsViewId@@VTUid@@ABVTDesC8@@@Z @ 17 NONAME ; void CGlxViewBase::ViewActivatedL(class TVwsViewId const &, class TUid, class TDesC8 const &)
	?DoViewDeactivate@CGlxMediaListViewBase@@EAEXXZ @ 18 NONAME ; void CGlxMediaListViewBase::DoViewDeactivate(void)
	?AddCommandHandlerL@CGlxViewBase@@QAEXPAVCGlxCommandHandler@@@Z @ 19 NONAME ; void CGlxViewBase::AddCommandHandlerL(class CGlxCommandHandler *)
	?DoDeactivate@CGlxViewBase@@EAEXXZ @ 20 NONAME ; void CGlxViewBase::DoDeactivate(void)
	?SetToolbarStateL@CGlxMediaListViewBase@@EAEXXZ @ 21 NONAME ; void CGlxMediaListViewBase::SetToolbarStateL(void)
	?ViewBaseConstructL@CGlxViewBase@@IAEXXZ @ 22 NONAME ; void CGlxViewBase::ViewBaseConstructL(void)
	?DoHandleCommandL@CGlxViewBase@@UAEHH@Z @ 23 NONAME ; int CGlxViewBase::DoHandleCommandL(int)
	?HandleViewCommandL@CGlxMediaListViewBase@@MAEHH@Z @ 24 NONAME ; int CGlxMediaListViewBase::HandleViewCommandL(int)
	?ViewAnimationSupported@CGlxViewBase@@MAEHW4TGlxViewswitchAnimation@@@Z @ 25 NONAME ; int CGlxViewBase::ViewAnimationSupported(enum TGlxViewswitchAnimation)
	?DoViewAnimationL@CGlxViewBase@@MAEXW4TGlxViewswitchAnimation@@W4TGlxNavigationDirection@@@Z @ 26 NONAME ; void CGlxViewBase::DoViewAnimationL(enum TGlxViewswitchAnimation, enum TGlxNavigationDirection)
	??1CGlxViewBase@@UAE@XZ @ 27 NONAME ; CGlxViewBase::~CGlxViewBase(void)
	?SetTitleL@CGlxViewBase@@QAEXABVTDesC16@@@Z @ 28 NONAME ; void CGlxViewBase::SetTitleL(class TDesC16 const &)
	??0CGlxMediaListViewBase@@QAE@XZ @ 29 NONAME ; CGlxMediaListViewBase::CGlxMediaListViewBase(void)
	?DisableTitle@CGlxViewBase@@QAEXXZ @ 30 NONAME ; void CGlxViewBase::DisableTitle(void)
	?HandleCommandL@CGlxViewBase@@EAEXH@Z @ 31 NONAME ; void CGlxViewBase::HandleCommandL(int)
	?FetchAttributesForCommandL@CGlxViewBase@@MAEXH@Z @ 32 NONAME ; void CGlxViewBase::FetchAttributesForCommandL(int)
	??1CGlxTitleFetcher@@UAE@XZ @ 33 NONAME ; CGlxTitleFetcher::~CGlxTitleFetcher(void)
	?OfferToolbarEventL@CGlxViewBase@@MAEXH@Z @ 34 NONAME ; void CGlxViewBase::OfferToolbarEventL(int)
	?ViewDeactivated@CGlxViewBase@@MAEXXZ @ 35 NONAME ; void CGlxViewBase::ViewDeactivated(void)
	?FetchAttributesL@CGlxViewBase@@MAEXXZ @ 36 NONAME ; void CGlxViewBase::FetchAttributesL(void)
	?DoPrepareCommandHandlerL@CGlxMediaListViewBase@@MAEXPAVCGlxCommandHandler@@@Z @ 37 NONAME ; void CGlxMediaListViewBase::DoPrepareCommandHandlerL(class CGlxCommandHandler *)
	?FetchAttributesForCommandL@CGlxMediaListViewBase@@EAEXH@Z @ 38 NONAME ; void CGlxMediaListViewBase::FetchAttributesForCommandL(int)
	?SetToolbarStateL@CGlxViewBase@@MAEXXZ @ 39 NONAME ; void CGlxViewBase::SetToolbarStateL(void)
	?GetToolBar@CGlxViewBase@@QAEPAVCAknToolbar@@XZ @ 40 NONAME ; class CAknToolbar * CGlxViewBase::GetToolBar(void)
	?SetGridToolBar@CGlxViewBase@@QAEXPAVCAknToolbar@@@Z @ 41 NONAME ; void CGlxViewBase::SetGridToolBar(class CAknToolbar *)

