EXPORTS
	?qt_metacast@GlxSlideShowEffectEngine@@UAEPAXPBD@Z @ 1 NONAME ; void * GlxSlideShowEffectEngine::qt_metacast(char const *)
	?deRegisterEffect@GlxSlideShowEffectEngine@@QAEXABVQString@@@Z @ 2 NONAME ; void GlxSlideShowEffectEngine::deRegisterEffect(class QString const &)
	?transitionEffectFinished@GlxSlideShowEffectEngine@@QAEXABUEffectStatus@HbEffect@@@Z @ 3 NONAME ; void GlxSlideShowEffectEngine::transitionEffectFinished(struct HbEffect::EffectStatus const &)
	?cancelEffect@GlxSlideShowEffectEngine@@QAEXAAV?$QList@PAVQGraphicsItem@@@@W4GlxEffect@@@Z @ 4 NONAME ; void GlxSlideShowEffectEngine::cancelEffect(class QList<class QGraphicsItem *> &, enum GlxEffect)
	?initTransitionEffect@GlxSlideShowEffectEngine@@AAEXXZ @ 5 NONAME ; void GlxSlideShowEffectEngine::initTransitionEffect(void)
	?slideShowEffectFinished@GlxSlideShowEffectEngine@@QAEXABUEffectStatus@HbEffect@@@Z @ 6 NONAME ; void GlxSlideShowEffectEngine::slideShowEffectFinished(struct HbEffect::EffectStatus const &)
	?tr@GlxSlideShowEffectEngine@@SA?AVQString@@PBD0H@Z @ 7 NONAME ; class QString GlxSlideShowEffectEngine::tr(char const *, char const *, int)
	?slideDelayTime@GlxSlideShowEffectEngine@@QAEHXZ @ 8 NONAME ; int GlxSlideShowEffectEngine::slideDelayTime(void)
	?registerTransitionEffect@GlxSlideShowEffectEngine@@QAEXXZ @ 9 NONAME ; void GlxSlideShowEffectEngine::registerTransitionEffect(void)
	?staticMetaObject@GlxSlideShowEffectEngine@@2UQMetaObject@@B @ 10 NONAME ; struct QMetaObject const GlxSlideShowEffectEngine::staticMetaObject
	??_EGlxSlideShowEffectEngine@@UAE@I@Z @ 11 NONAME ; GlxSlideShowEffectEngine::~GlxSlideShowEffectEngine(unsigned int)
	?trUtf8@GlxSlideShowEffectEngine@@SA?AVQString@@PBD0H@Z @ 12 NONAME ; class QString GlxSlideShowEffectEngine::trUtf8(char const *, char const *, int)
	?createView@GlxViewsFactory@@SAPAVGlxView@@HPAVHbMainWindow@@@Z @ 13 NONAME ; class GlxView * GlxViewsFactory::createView(int, class HbMainWindow *)
	?trUtf8@GlxSlideShowEffectEngine@@SA?AVQString@@PBD0@Z @ 14 NONAME ; class QString GlxSlideShowEffectEngine::trUtf8(char const *, char const *)
	??1GlxSlideShowEffectEngine@@UAE@XZ @ 15 NONAME ; GlxSlideShowEffectEngine::~GlxSlideShowEffectEngine(void)
	?cleanTransitionEfffect@GlxSlideShowEffectEngine@@AAEXXZ @ 16 NONAME ; void GlxSlideShowEffectEngine::cleanTransitionEfffect(void)
	?runEffect@GlxSlideShowEffectEngine@@QAEXPAVQGraphicsItem@@ABVQString@@@Z @ 17 NONAME ; void GlxSlideShowEffectEngine::runEffect(class QGraphicsItem *, class QString const &)
	?tr@GlxSlideShowEffectEngine@@SA?AVQString@@PBD0@Z @ 18 NONAME ; class QString GlxSlideShowEffectEngine::tr(char const *, char const *)
	?getStaticMetaObject@GlxSlideShowEffectEngine@@SAABUQMetaObject@@XZ @ 19 NONAME ; struct QMetaObject const & GlxSlideShowEffectEngine::getStaticMetaObject(void)
	?qt_metacall@GlxSlideShowEffectEngine@@UAEHW4Call@QMetaObject@@HPAPAX@Z @ 20 NONAME ; int GlxSlideShowEffectEngine::qt_metacall(enum QMetaObject::Call, int, void * *)
	?isEffectRuning@GlxSlideShowEffectEngine@@QAE_NPAVQGraphicsItem@@@Z @ 21 NONAME ; bool GlxSlideShowEffectEngine::isEffectRuning(class QGraphicsItem *)
	??0GlxSlideShowEffectEngine@@QAE@XZ @ 22 NONAME ; GlxSlideShowEffectEngine::GlxSlideShowEffectEngine(void)
	?runEffect@GlxSlideShowEffectEngine@@QAEXAAV?$QList@PAVQGraphicsItem@@@@ABVQString@@@Z @ 23 NONAME ; void GlxSlideShowEffectEngine::runEffect(class QList<class QGraphicsItem *> &, class QString const &)
	?readSetting@GlxSlideShowEffectEngine@@QAEXXZ @ 24 NONAME ; void GlxSlideShowEffectEngine::readSetting(void)
	?effectPluginResolver@GlxSlideShowEffectEngine@@AAEXXZ @ 25 NONAME ; void GlxSlideShowEffectEngine::effectPluginResolver(void)
	?slideShowMoveDir@GlxSlideShowEffectEngine@@QAE?AW4GlxSlideShowMoveDir@@XZ @ 26 NONAME ; enum GlxSlideShowMoveDir GlxSlideShowEffectEngine::slideShowMoveDir(void)
	?metaObject@GlxSlideShowEffectEngine@@UBEPBUQMetaObject@@XZ @ 27 NONAME ; struct QMetaObject const * GlxSlideShowEffectEngine::metaObject(void) const
	?runEffect@GlxSlideShowEffectEngine@@QAEXAAV?$QList@PAVQGraphicsItem@@@@W4GlxEffect@@@Z @ 28 NONAME ; void GlxSlideShowEffectEngine::runEffect(class QList<class QGraphicsItem *> &, enum GlxEffect)
	?cancelEffect@GlxSlideShowEffectEngine@@QAEXPAVQGraphicsItem@@@Z @ 29 NONAME ; void GlxSlideShowEffectEngine::cancelEffect(class QGraphicsItem *)
	?setEffect@GlxSlideShowEffectEngine@@QAEXW4GlxEffect@@@Z @ 30 NONAME ; void GlxSlideShowEffectEngine::setEffect(enum GlxEffect)
	?effectFinished@GlxSlideShowEffectEngine@@IAEXXZ @ 31 NONAME ; void GlxSlideShowEffectEngine::effectFinished(void)
	?isEffectRuning@GlxSlideShowEffectEngine@@QAE_NABV?$QList@PAVQGraphicsItem@@@@@Z @ 32 NONAME ; bool GlxSlideShowEffectEngine::isEffectRuning(class QList<class QGraphicsItem *> const &)
	?registerEffect@GlxSlideShowEffectEngine@@QAEXABVQString@@@Z @ 33 NONAME ; void GlxSlideShowEffectEngine::registerEffect(class QString const &)
	?cancelEffect@GlxSlideShowEffectEngine@@QAEXABV?$QList@PAVQGraphicsItem@@@@@Z @ 34 NONAME ; void GlxSlideShowEffectEngine::cancelEffect(class QList<class QGraphicsItem *> const &)
	?deregistertransitionEffect@GlxSlideShowEffectEngine@@QAEXXZ @ 35 NONAME ; void GlxSlideShowEffectEngine::deregistertransitionEffect(void)

