EXPORTS
	?SetToFirst@TGlxSelectionIterator@@UAEXPBVMGlxMediaList@@@Z @ 1 NONAME ; void TGlxSelectionIterator::SetToFirst(class MGlxMediaList const *)
	??0TGlxExclusionIterator@@QAE@AAVMGlxMediaListIterator@@0@Z @ 2 NONAME ; TGlxExclusionIterator::TGlxExclusionIterator(class MGlxMediaListIterator &, class MGlxMediaListIterator &)
	?SetToFirst@TGlxExclusionIterator@@UAEXPBVMGlxMediaList@@@Z @ 3 NONAME ; void TGlxExclusionIterator::SetToFirst(class MGlxMediaList const *)
	??1CGlxListWindow@@UAE@XZ @ 4 NONAME ; CGlxListWindow::~CGlxListWindow(void)
	?SetDisabledIfMoreThanRangeSelected@TGlxSelectionIterator@@QAEXH@Z @ 5 NONAME ; void TGlxSelectionIterator::SetDisabledIfMoreThanRangeSelected(int)
	??0TGlxWindowIterator@@QAE@ABV0@@Z @ 6 NONAME ; TGlxWindowIterator::TGlxWindowIterator(class TGlxWindowIterator const &)
	?SetRangeOffsets@TGlxFromFocusOutwardIterator@@QAEXHH@Z @ 7 NONAME ; void TGlxFromFocusOutwardIterator::SetRangeOffsets(int, int)
	??ETGlxWindowIterator@@QAEHH@Z @ 8 NONAME ; int TGlxWindowIterator::operator++(int)
	?__DbgTestInvariant@CGlxListWindow@@QBEXXZ @ 9 NONAME ; void CGlxListWindow::__DbgTestInvariant(void) const
	?RemoveObjects@CGlxListWindow@@QAEXHHHH@Z @ 10 NONAME ; void CGlxListWindow::RemoveObjects(int, int, int, int)
	?Iterator@CGlxListWindow@@QBE?AVTGlxWindowIterator@@XZ @ 11 NONAME ; class TGlxWindowIterator CGlxListWindow::Iterator(void) const
	?AddObjects@CGlxListWindow@@QAEXHH@Z @ 12 NONAME ; void CGlxListWindow::AddObjects(int, int)
	?CreateTestSuiteL@@YAPAVMEUnitTest@@XZ @ 13 NONAME ; class MEUnitTest * CreateTestSuiteL(void)
	?AddObjects@CGlxListWindow@@QAEXHHHH@Z @ 14 NONAME ; void CGlxListWindow::AddObjects(int, int, int, int)
	??0TGlxSequentialIterator@@QAE@XZ @ 15 NONAME ; TGlxSequentialIterator::TGlxSequentialIterator(void)
	?SetRangeOffsetsL@CGlxListWindow@@QAEXHHHH@Z @ 16 NONAME ; void CGlxListWindow::SetRangeOffsetsL(int, int, int, int)
	??0TGlxFromFocusOutwardBlockyIterator@@QAE@XZ @ 17 NONAME ; TGlxFromFocusOutwardBlockyIterator::TGlxFromFocusOutwardBlockyIterator(void)
	?SetFocusIndex@CGlxListWindow@@QAEXHH@Z @ 18 NONAME ; void CGlxListWindow::SetFocusIndex(int, int)
	??1TGlxSelectionIterator@@QAE@XZ @ 19 NONAME ; TGlxSelectionIterator::~TGlxSelectionIterator(void)
	??0TGlxSelectionIterator@@QAE@XZ @ 20 NONAME ; TGlxSelectionIterator::TGlxSelectionIterator(void)
	??0TGlxFromFocusOutwardIterator@@QAE@XZ @ 21 NONAME ; TGlxFromFocusOutwardIterator::TGlxFromFocusOutwardIterator(void)
	??1TGlxFromManualIndexOutwardBlockyIterator@@QAE@XZ @ 22 NONAME ; TGlxFromManualIndexOutwardBlockyIterator::~TGlxFromManualIndexOutwardBlockyIterator(void)
	??0TGlxFromManualIndexBlockyIterator@@QAE@XZ @ 23 NONAME ; TGlxFromManualIndexBlockyIterator::TGlxFromManualIndexBlockyIterator(void)
	?SetRangeOffsets@TGlxFromIndexOutwardBlockyIterator@@QAEXHH@Z @ 24 NONAME ; void TGlxFromIndexOutwardBlockyIterator::SetRangeOffsets(int, int)
	?SetFocusIndex@CGlxListWindow@@QAEXH@Z @ 25 NONAME ; void CGlxListWindow::SetFocusIndex(int)
	??1TGlxFromFocusOutwardBlockyIterator@@QAE@XZ @ 26 NONAME ; TGlxFromFocusOutwardBlockyIterator::~TGlxFromFocusOutwardBlockyIterator(void)
	?RemoveObjects@CGlxListWindow@@QAEXHH@Z @ 27 NONAME ; void CGlxListWindow::RemoveObjects(int, int)
	??0TGlxFromIndexOutwardBlockyIterator@@QAE@ABVMGlxIndex@0@@Z @ 28 NONAME ; TGlxFromIndexOutwardBlockyIterator::TGlxFromIndexOutwardBlockyIterator(class TGlxFromIndexOutwardBlockyIterator::MGlxIndex const &)
	?At@CGlxListWindow@@QBEPBVCBase@@H@Z @ 29 NONAME ; class CBase const * CGlxListWindow::At(int) const
	?ConstructL@CGlxListWindow@@QAEXXZ @ 30 NONAME ; void CGlxListWindow::ConstructL(void)
	?SetRange@TGlxSequentialIterator@@QAEXH@Z @ 31 NONAME ; void TGlxSequentialIterator::SetRange(int)
	?At@CGlxListWindow@@QAEPAVCBase@@H@Z @ 32 NONAME ; class CBase * CGlxListWindow::At(int)
	??1TGlxFromManualIndexBlockyIterator@@QAE@XZ @ 33 NONAME ; TGlxFromManualIndexBlockyIterator::~TGlxFromManualIndexBlockyIterator(void)
	?SetRangeOffsets@TGlxFromManualIndexBlockyIterator@@QAEXHH@Z @ 34 NONAME ; void TGlxFromManualIndexBlockyIterator::SetRangeOffsets(int, int)
	??1TGlxFromIndexOutwardBlockyIterator@@QAE@XZ @ 35 NONAME ; TGlxFromIndexOutwardBlockyIterator::~TGlxFromIndexOutwardBlockyIterator(void)
	?SetIndex@TGlxFromManualIndexOutwardBlockyIterator@@QAEXH@Z @ 36 NONAME ; void TGlxFromManualIndexOutwardBlockyIterator::SetIndex(int)
	??0TGlxFromManualIndexOutwardBlockyIterator@@QAE@XZ @ 37 NONAME ; TGlxFromManualIndexOutwardBlockyIterator::TGlxFromManualIndexOutwardBlockyIterator(void)
	?Cleanup@CGlxListWindow@@QAEXXZ @ 38 NONAME ; void CGlxListWindow::Cleanup(void)
	?SetRange@TGlxSelectionIterator@@QAEXH@Z @ 39 NONAME ; void TGlxSelectionIterator::SetRange(int)
	??1TGlxExclusionIterator@@QAE@XZ @ 40 NONAME ; TGlxExclusionIterator::~TGlxExclusionIterator(void)
	??0CGlxListWindow@@QAE@AAVMGlxWindowObjectFactory@@@Z @ 41 NONAME ; CGlxListWindow::CGlxListWindow(class MGlxWindowObjectFactory &)
	??0TGlxSpecificIdIterator@@QAE@ABV?$TGlxId@VTGlxIdSpaceIdBase@@@@VTGlxMediaId@@@Z @ 42 NONAME ; TGlxSpecificIdIterator::TGlxSpecificIdIterator(class TGlxId<class TGlxIdSpaceIdBase> const &, class TGlxMediaId)
	?SetRangeOffsetsL@CGlxListWindow@@QAEXHH@Z @ 43 NONAME ; void CGlxListWindow::SetRangeOffsetsL(int, int)
	??0TGlxFirstThenLastIterator@@QAE@XZ @ 44 NONAME ; TGlxFirstThenLastIterator::TGlxFirstThenLastIterator(void)
	??1TGlxFirstThenLastIterator@@QAE@XZ @ 45 NONAME ; TGlxFirstThenLastIterator::~TGlxFirstThenLastIterator(void)
	??ETGlxSelectionIterator@@UAEHH@Z @ 46 NONAME ; int TGlxSelectionIterator::operator++(int)
	??1TGlxFromFocusOutwardIterator@@QAE@XZ @ 47 NONAME ; TGlxFromFocusOutwardIterator::~TGlxFromFocusOutwardIterator(void)
	?InRange@TGlxSelectionIterator@@UBEHH@Z @ 48 NONAME ; int TGlxSelectionIterator::InRange(int) const

