EXPORTS
	?CreateTestSuiteL@@YAPAVMEUnitTest@@XZ @ 1 NONAME ; class MEUnitTest * CreateTestSuiteL(void)
	?NewL@CGlxCommandHandlerDrm@@SAPAV1@PAVMGlxMediaListProvider@@H@Z @ 2 NONAME ; class CGlxCommandHandlerDrm * CGlxCommandHandlerDrm::NewL(class MGlxMediaListProvider *, int)
	?ViewNavigationDirection@CGlxUiUtility@@QAE?AW4TGlxNavigationDirection@@XZ @ 3 NONAME ; enum TGlxNavigationDirection CGlxUiUtility::ViewNavigationDirection(void)
	?RemoveFromItem@CGlxIconManager@@UAEXPAVCAlfVisual@@H@Z @ 4 NONAME ; void CGlxIconManager::RemoveFromItem(class CAlfVisual *, int)
	?InstanceL@CGlxDRMUtility@@SAPAV1@XZ @ 5 NONAME ; class CGlxDRMUtility * CGlxDRMUtility::InstanceL(void)
	?CanShowInfoOnlineL@CGlxDRMUtility@@QAEHAAVTDesC16@@@Z @ 6 NONAME ; int CGlxDRMUtility::CanShowInfoOnlineL(class TDesC16 &)
	??1CGlxMediaListCommandHandler@@UAE@XZ @ 7 NONAME ; CGlxMediaListCommandHandler::~CGlxMediaListCommandHandler(void)
	?CreateVisualFromIconL@CGlxIconManager@@UAEXHAAVTDesC16@@AAVTGlxIconManagerParams@@@Z @ 8 NONAME ; void CGlxIconManager::CreateVisualFromIconL(int, class TDesC16 &, class TGlxIconManagerParams &)
	?Deactivate@CGlxMediaListCommandHandler@@UAEXXZ @ 9 NONAME ; void CGlxMediaListCommandHandler::Deactivate(void)
	?BrushPositionInVisual@CGlxIconManager@@UAEHPAVCAlfVisual@@H@Z @ 10 NONAME ; int CGlxIconManager::BrushPositionInVisual(class CAlfVisual *, int)
	?ShowAlfDisplayL@CGlxUiUtility@@SAXXZ @ 11 NONAME ; void CGlxUiUtility::ShowAlfDisplayL(void)
	??0TCommandInfo@CGlxMediaListCommandHandler@@QAE@H@Z @ 12 NONAME ; CGlxMediaListCommandHandler::TCommandInfo::TCommandInfo(int)
	?BypassFiltersForExecute@CGlxMediaListCommandHandler@@MBEHXZ @ 13 NONAME ; int CGlxMediaListCommandHandler::BypassFiltersForExecute(void) const
	?NewL@CGlxTextureManager@@SAPAV1@AAVCAlfTextureManager@@@Z @ 14 NONAME ; class CGlxTextureManager * CGlxTextureManager::NewL(class CAlfTextureManager &)
	?ManagerL@CGlxVisualListManager@@SAPAV1@XZ @ 15 NONAME ; class CGlxVisualListManager * CGlxVisualListManager::ManagerL(void)
	?CreateZoomedTextureL@@YAAAVCAlfTexture@@ABVTGlxMedia@@ABVTMPXAttribute@@V?$TGlxId@VTGlxIdSpaceIdBase@@@@AAH@Z @ 16 NONAME ; class CAlfTexture & CreateZoomedTextureL(class TGlxMedia const &, class TMPXAttribute const &, class TGlxId<class TGlxIdSpaceIdBase>, int &)
	??1CGlxIconManager@@UAE@XZ @ 17 NONAME ; CGlxIconManager::~CGlxIconManager(void)
	?UtilityL@CGlxUiUtility@@SAPAV1@XZ @ 18 NONAME ; class CGlxUiUtility * CGlxUiUtility::UtilityL(void)
	?CreateVisualFromTextureL@CGlxIconManager@@UAEXAAVCAlfTexture@@AAVTGlxIconManagerParams@@@Z @ 19 NONAME ; void CGlxIconManager::CreateVisualFromTextureL(class CAlfTexture &, class TGlxIconManagerParams &)
	?HideAlfDisplayL@CGlxUiUtility@@SAXXZ @ 20 NONAME ; void CGlxUiUtility::HideAlfDisplayL(void)
	?ExecuteL@CGlxMediaListCommandHandler@@UAEHH@Z @ 21 NONAME ; int CGlxMediaListCommandHandler::ExecuteL(int)
	?IsSupported@CGlxMediaListCommandHandler@@IBEHH@Z @ 22 NONAME ; int CGlxMediaListCommandHandler::IsSupported(int) const
	?RemoveTexture@CGlxTextureManager@@QAEXABVCAlfTexture@@@Z @ 23 NONAME ; void CGlxTextureManager::RemoveTexture(class CAlfTexture const &)
	?PreDynInitMenuPaneL@CGlxMediaListCommandHandler@@UAEXH@Z @ 24 NONAME ; void CGlxMediaListCommandHandler::PreDynInitMenuPaneL(int)
	?DoGetRequiredAttributesL@CGlxMediaListCommandHandler@@MBEXAAV?$RArray@VTMPXAttribute@@@@H@Z @ 25 NONAME ; void CGlxMediaListCommandHandler::DoGetRequiredAttributesL(class RArray<class TMPXAttribute> &, int) const
	??1CGlxCommandHandlerDrm@@UAE@XZ @ 26 NONAME ; CGlxCommandHandlerDrm::~CGlxCommandHandlerDrm(void)
	?CommandInfoIndex@CGlxMediaListCommandHandler@@ABEHH@Z @ 27 NONAME ; int CGlxMediaListCommandHandler::CommandInfoIndex(int) const
	?IsForwardLockedL@CGlxDRMUtility@@QAEHABVTDesC16@@@Z @ 28 NONAME ; int CGlxDRMUtility::IsForwardLockedL(class TDesC16 const &)
	?OfferKeyEventL@CGlxMediaListCommandHandler@@UAE?AW4TKeyResponse@@ABUTKeyEvent@@W4TEventCode@@@Z @ 29 NONAME ; enum TKeyResponse CGlxMediaListCommandHandler::OfferKeyEventL(struct TKeyEvent const &, enum TEventCode)
	?Display@CGlxUiUtility@@QBEPAVCAlfDisplay@@XZ @ 30 NONAME ; class CAlfDisplay * CGlxUiUtility::Display(void) const
	??0CGlxMediaListCommandHandler@@QAE@PAVMGlxMediaListProvider@@H@Z @ 31 NONAME ; CGlxMediaListCommandHandler::CGlxMediaListCommandHandler(class MGlxMediaListProvider *, int)
	?SetViewNavigationDirection@CGlxUiUtility@@QAEXW4TGlxNavigationDirection@@@Z @ 32 NONAME ; void CGlxUiUtility::SetViewNavigationDirection(enum TGlxNavigationDirection)
	?ReleaseList@CGlxVisualListManager@@QAEXPAVMGlxVisualList@@@Z @ 33 NONAME ; void CGlxVisualListManager::ReleaseList(class MGlxVisualList *)
	?MediaList@CGlxMediaListCommandHandler@@IBEABVMGlxMediaList@@XZ @ 34 NONAME ; class MGlxMediaList const & CGlxMediaListCommandHandler::MediaList(void) const
	??0CGlxIconManager@@IAE@AAVMGlxMediaList@@AAVMGlxVisualList@@@Z @ 35 NONAME ; CGlxIconManager::CGlxIconManager(class MGlxMediaList &, class MGlxVisualList &)
	??0TGlxIconManagerParams@@QAE@MMMMM@Z @ 36 NONAME ; TGlxIconManagerParams::TGlxIconManagerParams(float, float, float, float, float)
	?CreateIconTextureL@CGlxTextureManager@@QAEAAVCAlfTexture@@HAAVTDesC16@@VTSize@@@Z @ 37 NONAME ; class CAlfTexture & CGlxTextureManager::CreateIconTextureL(int, class TDesC16 &, class TSize)
	?DRMThumbnailSize@CGlxDRMUtility@@QAE?AVTSize@@AAV2@@Z @ 38 NONAME ; class TSize CGlxDRMUtility::DRMThumbnailSize(class TSize &)
	?SelectionLength@CGlxMediaListCommandHandler@@IBEHXZ @ 39 NONAME ; int CGlxMediaListCommandHandler::SelectionLength(void) const
	?CommandInfo@CGlxMediaListCommandHandler@@IAEAAUTCommandInfo@1@H@Z @ 40 NONAME ; struct CGlxMediaListCommandHandler::TCommandInfo & CGlxMediaListCommandHandler::CommandInfo(int)
	?CreateThumbnailTextureL@@YAAAVCAlfTexture@@VTGlxMediaId@@V?$TGlxId@VTGlxIdSpaceIdBase@@@@ABVTSize@@PAVMGlxTextureObserver@@AAH@Z @ 41 NONAME ; class CAlfTexture & CreateThumbnailTextureL(class TGlxMediaId, class TGlxId<class TGlxIdSpaceIdBase>, class TSize const &, class MGlxTextureObserver *, int &)
	?GlxTextureManager@CGlxUiUtility@@QAEAAVCGlxTextureManager@@XZ @ 42 NONAME ; class CGlxTextureManager & CGlxUiUtility::GlxTextureManager(void)
	?BaseConstructL@CGlxIconManager@@QAEXXZ @ 43 NONAME ; void CGlxIconManager::BaseConstructL(void)
	?DynInitMenuPaneL@CGlxMediaListCommandHandler@@UAEXHPAVCEikMenuPane@@@Z @ 44 NONAME ; void CGlxMediaListCommandHandler::DynInitMenuPaneL(int, class CEikMenuPane *)
	?NewL@CGlxDrmIconManager@@SAPAV1@AAVMGlxMediaList@@AAVMGlxVisualList@@@Z @ 45 NONAME ; class CGlxDrmIconManager * CGlxDrmIconManager::NewL(class MGlxMediaList &, class MGlxVisualList &)
	??1CGlxDrmIconManager@@UAE@XZ @ 46 NONAME ; CGlxDrmIconManager::~CGlxDrmIconManager(void)
	?Close@CGlxDRMUtility@@QAEXXZ @ 47 NONAME ; void CGlxDRMUtility::Close(void)
	?HandleActionL@CGlxUiUtility@@UAEXABVTAlfActionCommand@@@Z @ 48 NONAME ; void CGlxUiUtility::HandleActionL(class TAlfActionCommand const &)
	?ConsumeRightsL@CGlxDRMUtility@@QAEHABVTDesC16@@@Z @ 49 NONAME ; int CGlxDRMUtility::ConsumeRightsL(class TDesC16 const &)
	?AddIconToItemL@CGlxIconManager@@UAEXHH@Z @ 50 NONAME ; void CGlxIconManager::AddIconToItemL(int, int)
	?CreateAvkonIconTextureL@CGlxTextureManager@@QAEAAVCAlfTexture@@ABVTAknsItemID@@HVTSize@@@Z @ 51 NONAME ; class CAlfTexture & CGlxTextureManager::CreateAvkonIconTextureL(class TAknsItemID const &, int, class TSize)
	?DoIsDisabled@CGlxMediaListCommandHandler@@MBEHHAAVMGlxMediaList@@@Z @ 52 NONAME ; int CGlxMediaListCommandHandler::DoIsDisabled(int, class MGlxMediaList &) const
	??0CGlxMedia@@QAE@ABVTGlxMediaId@@@Z @ 53 NONAME ; CGlxMedia::CGlxMedia(class TGlxMediaId const &)
	?AddCommandL@CGlxMediaListCommandHandler@@IAEXABUTCommandInfo@1@@Z @ 54 NONAME ; void CGlxMediaListCommandHandler::AddCommandL(struct CGlxMediaListCommandHandler::TCommandInfo const &)
	?HandleTvStatusChangedL@CGlxUiUtility@@UAEXW4TTvChangeType@@@Z @ 55 NONAME ; void CGlxUiUtility::HandleTvStatusChangedL(enum TTvChangeType)
	?Close@CGlxUiUtility@@QAEXXZ @ 56 NONAME ; void CGlxUiUtility::Close(void)
	?MediaList@CGlxMediaListCommandHandler@@IAEAAVMGlxMediaList@@XZ @ 57 NONAME ; class MGlxMediaList & CGlxMediaListCommandHandler::MediaList(void)
	?CreateVisualFromIconL@CGlxIconManager@@UAEXHAAVTDesC16@@@Z @ 58 NONAME ; void CGlxIconManager::CreateVisualFromIconL(int, class TDesC16 &)
	?IsDisabledL@CGlxMediaListCommandHandler@@IBEHHAAVMGlxMediaList@@@Z @ 59 NONAME ; int CGlxMediaListCommandHandler::IsDisabledL(int, class MGlxMediaList &) const
	??1CGlxMedia@@UAE@XZ @ 60 NONAME ; CGlxMedia::~CGlxMedia(void)
	?HandleSkinChanged@CGlxTextureManager@@UAEXXZ @ 61 NONAME ; void CGlxTextureManager::HandleSkinChanged(void)
	?DisplaySize@CGlxUiUtility@@QBE?AVTSize@@XZ @ 62 NONAME ; class TSize CGlxUiUtility::DisplaySize(void) const
	?ShowRightsInfoL@CGlxDRMUtility@@QAEXABVTDesC16@@@Z @ 63 NONAME ; void CGlxDRMUtility::ShowRightsInfoL(class TDesC16 const &)
	?GetRequiredAttributesL@CGlxMediaListCommandHandler@@UBEXAAV?$RArray@VTMPXAttribute@@@@HHH@Z @ 64 NONAME ; void CGlxMediaListCommandHandler::GetRequiredAttributesL(class RArray<class TMPXAttribute> &, int, int, int) const
	?ListL@CGlxVisualListManager@@QAEPAVMGlxVisualList@@AAVMGlxMediaList@@AAVCAlfEnv@@AAVCAlfDisplay@@W4TScaleMode@CAlfImageVisual@@@Z @ 65 NONAME ; class MGlxVisualList * CGlxVisualListManager::ListL(class MGlxMediaList &, class CAlfEnv &, class CAlfDisplay &, enum CAlfImageVisual::TScaleMode)
	?DoActivateL@CGlxMediaListCommandHandler@@MAEXH@Z @ 66 NONAME ; void CGlxMediaListCommandHandler::DoActivateL(int)
	?RetrieveL@GlxAttributeRetriever@@SAHABVMGlxFetchContext@@AAVMGlxMediaList@@H@Z @ 67 NONAME ; int GlxAttributeRetriever::RetrieveL(class MGlxFetchContext const &, class MGlxMediaList &, int)
	?TextStyleIdL@CGlxUiUtility@@QAEHHH@Z @ 68 NONAME ; int CGlxUiUtility::TextStyleIdL(int, int)
	?BypassFiltersForMenu@CGlxMediaListCommandHandler@@MBEHXZ @ 69 NONAME ; int CGlxMediaListCommandHandler::BypassFiltersForMenu(void) const
	?ViewingState@CGlxMediaListCommandHandler@@IBE?AW4TViewingState@TCommandInfo@1@XZ @ 70 NONAME ; enum CGlxMediaListCommandHandler::TCommandInfo::TViewingState CGlxMediaListCommandHandler::ViewingState(void) const
	?ShowInfoOnlineL@CGlxDRMUtility@@QAEXAAVTDesC16@@@Z @ 71 NONAME ; void CGlxDRMUtility::ShowInfoOnlineL(class TDesC16 &)
	?Close@CGlxVisualListManager@@QAEXXZ @ 72 NONAME ; void CGlxVisualListManager::Close(void)
	?AddIconToItemL@CGlxIconManager@@UAEXPAVCAlfVisual@@H@Z @ 73 NONAME ; void CGlxIconManager::AddIconToItemL(class CAlfVisual *, int)
	?AllocListL@CGlxVisualListManager@@QAEPAVMGlxVisualList@@AAVMGlxMediaList@@AAVCAlfEnv@@AAVCAlfDisplay@@W4TScaleMode@CAlfImageVisual@@@Z @ 74 NONAME ; class MGlxVisualList * CGlxVisualListManager::AllocListL(class MGlxMediaList &, class CAlfEnv &, class CAlfDisplay &, enum CAlfImageVisual::TScaleMode)
	?RemoveFromItem@CGlxIconManager@@UAEXHH@Z @ 75 NONAME ; void CGlxIconManager::RemoveFromItem(int, int)
	?BrushPositionInVisual@CGlxIconManager@@UAEHHH@Z @ 76 NONAME ; int CGlxIconManager::BrushPositionInVisual(int, int)
	?Env@CGlxUiUtility@@QBEPAVCAlfEnv@@XZ @ 77 NONAME ; class CAlfEnv * CGlxUiUtility::Env(void) const
	?DoDynInitMenuPaneL@CGlxMediaListCommandHandler@@MAEXHPAVCEikMenuPane@@@Z @ 78 NONAME ; void CGlxMediaListCommandHandler::DoDynInitMenuPaneL(int, class CEikMenuPane *)
	?CheckOpenRightsL@CGlxDRMUtility@@QAEHABVTDesC16@@H@Z @ 79 NONAME ; int CGlxDRMUtility::CheckOpenRightsL(class TDesC16 const &, int)
	?ScreenFurniture@CGlxUiUtility@@QAEPAVCGlxScreenFurniture@@XZ @ 80 NONAME ; class CGlxScreenFurniture * CGlxUiUtility::ScreenFurniture(void)
	?CreateVisualFromTextureL@CGlxIconManager@@UAEXAAVCAlfTexture@@@Z @ 81 NONAME ; void CGlxIconManager::CreateVisualFromTextureL(class CAlfTexture &)

