EXPORTS
	_Z16CreateTestSuiteLv @ 1 NONAME
	_ZN14CGlxListWindow10ConstructLEv @ 2 NONAME
	_ZN14CGlxListWindow11AddObjectsLEii @ 3 NONAME
	_ZN14CGlxListWindow11AddObjectsLEiiii @ 4 NONAME
	_ZN14CGlxListWindow14RemoveObjectsLEii @ 5 NONAME
	_ZN14CGlxListWindow14RemoveObjectsLEiiii @ 6 NONAME
	_ZN14CGlxListWindow14SetFocusIndexLEi @ 7 NONAME
	_ZN14CGlxListWindow14SetFocusIndexLEii @ 8 NONAME
	_ZN14CGlxListWindow16SetRangeOffsetsLEii @ 9 NONAME
	_ZN14CGlxListWindow16SetRangeOffsetsLEiiii @ 10 NONAME
	_ZN14CGlxListWindow2AtEi @ 11 NONAME
	_ZN14CGlxListWindow8CleanupLEv @ 12 NONAME
	_ZN14CGlxListWindowC1ER23MGlxWindowObjectFactory @ 13 NONAME
	_ZN14CGlxListWindowC2ER23MGlxWindowObjectFactory @ 14 NONAME
	_ZN14CGlxListWindowD0Ev @ 15 NONAME
	_ZN14CGlxListWindowD1Ev @ 16 NONAME
	_ZN14CGlxListWindowD2Ev @ 17 NONAME
	_ZN18TGlxWindowIteratorC1ERKS_ @ 18 NONAME
	_ZN18TGlxWindowIteratorC2ERKS_ @ 19 NONAME
	_ZN18TGlxWindowIteratorppEi @ 20 NONAME
	_ZN21TGlxExclusionIterator10SetToFirstEPK13MGlxMediaList @ 21 NONAME
	_ZN21TGlxExclusionIteratorC1ER21MGlxMediaListIteratorS1_ @ 22 NONAME
	_ZN21TGlxExclusionIteratorC2ER21MGlxMediaListIteratorS1_ @ 23 NONAME
	_ZN21TGlxExclusionIteratorD1Ev @ 24 NONAME
	_ZN21TGlxExclusionIteratorD2Ev @ 25 NONAME
	_ZN21TGlxSelectionIterator10SetToFirstEPK13MGlxMediaList @ 26 NONAME
	_ZN21TGlxSelectionIterator34SetDisabledIfMoreThanRangeSelectedEi @ 27 NONAME
	_ZN21TGlxSelectionIterator8SetRangeEi @ 28 NONAME
	_ZN21TGlxSelectionIteratorC1Ev @ 29 NONAME
	_ZN21TGlxSelectionIteratorC2Ev @ 30 NONAME
	_ZN21TGlxSelectionIteratorD1Ev @ 31 NONAME
	_ZN21TGlxSelectionIteratorD2Ev @ 32 NONAME
	_ZN21TGlxSelectionIteratorppEi @ 33 NONAME
	_ZN22TGlxSequentialIterator8SetRangeEi @ 34 NONAME
	_ZN22TGlxSequentialIteratorC1Ev @ 35 NONAME
	_ZN22TGlxSequentialIteratorC2Ev @ 36 NONAME
	_ZN22TGlxSpecificIdIteratorC1ERK6TGlxIdI17TGlxIdSpaceIdBaseE11TGlxMediaId @ 37 NONAME
	_ZN22TGlxSpecificIdIteratorC2ERK6TGlxIdI17TGlxIdSpaceIdBaseE11TGlxMediaId @ 38 NONAME
	_ZN25TGlxFirstThenLastIteratorC1Ev @ 39 NONAME
	_ZN25TGlxFirstThenLastIteratorC2Ev @ 40 NONAME
	_ZN25TGlxFirstThenLastIteratorD1Ev @ 41 NONAME
	_ZN25TGlxFirstThenLastIteratorD2Ev @ 42 NONAME
	_ZN28TGlxFromFocusOutwardIterator15SetRangeOffsetsEii @ 43 NONAME
	_ZN28TGlxFromFocusOutwardIteratorC1Ev @ 44 NONAME
	_ZN28TGlxFromFocusOutwardIteratorC2Ev @ 45 NONAME
	_ZN28TGlxFromFocusOutwardIteratorD1Ev @ 46 NONAME
	_ZN28TGlxFromFocusOutwardIteratorD2Ev @ 47 NONAME
	_ZN33TGlxFromManualIndexBlockyIterator15SetRangeOffsetsEii @ 48 NONAME
	_ZN33TGlxFromManualIndexBlockyIteratorC1Ev @ 49 NONAME
	_ZN33TGlxFromManualIndexBlockyIteratorC2Ev @ 50 NONAME
	_ZN33TGlxFromManualIndexBlockyIteratorD1Ev @ 51 NONAME
	_ZN33TGlxFromManualIndexBlockyIteratorD2Ev @ 52 NONAME
	_ZN34TGlxFromFocusOutwardBlockyIteratorC1Ev @ 53 NONAME
	_ZN34TGlxFromFocusOutwardBlockyIteratorC2Ev @ 54 NONAME
	_ZN34TGlxFromFocusOutwardBlockyIteratorD1Ev @ 55 NONAME
	_ZN34TGlxFromFocusOutwardBlockyIteratorD2Ev @ 56 NONAME
	_ZN34TGlxFromIndexOutwardBlockyIterator15SetRangeOffsetsEii @ 57 NONAME
	_ZN34TGlxFromIndexOutwardBlockyIteratorC1ERKNS_9MGlxIndexE @ 58 NONAME
	_ZN34TGlxFromIndexOutwardBlockyIteratorC2ERKNS_9MGlxIndexE @ 59 NONAME
	_ZN34TGlxFromIndexOutwardBlockyIteratorD1Ev @ 60 NONAME
	_ZN34TGlxFromIndexOutwardBlockyIteratorD2Ev @ 61 NONAME
	_ZN40TGlxFromManualIndexOutwardBlockyIterator8SetIndexEi @ 62 NONAME
	_ZN40TGlxFromManualIndexOutwardBlockyIteratorC1Ev @ 63 NONAME
	_ZN40TGlxFromManualIndexOutwardBlockyIteratorC2Ev @ 64 NONAME
	_ZN40TGlxFromManualIndexOutwardBlockyIteratorD1Ev @ 65 NONAME
	_ZN40TGlxFromManualIndexOutwardBlockyIteratorD2Ev @ 66 NONAME
	_ZNK14CGlxListWindow18__DbgTestInvariantEv @ 67 NONAME
	_ZNK14CGlxListWindow2AtEi @ 68 NONAME
	_ZNK14CGlxListWindow8IteratorEv @ 69 NONAME
	_ZNK21TGlxSelectionIterator7InRangeEi @ 70 NONAME
	_ZTI14CGlxListWindow @ 71 NONAME
	_ZTI21TGlxExclusionIterator @ 72 NONAME
	_ZTI21TGlxSelectionIterator @ 73 NONAME
	_ZTI22TGlxSequentialIterator @ 74 NONAME
	_ZTI22TGlxSpecificIdIterator @ 75 NONAME
	_ZTI25TGlxFirstThenLastIterator @ 76 NONAME
	_ZTI28TGlxFromFocusOutwardIterator @ 77 NONAME
	_ZTI33TGlxFromManualIndexBlockyIterator @ 78 NONAME
	_ZTI34TGlxFromFocusOutwardBlockyIterator @ 79 NONAME
	_ZTI34TGlxFromIndexOutwardBlockyIterator @ 80 NONAME
	_ZTI40TGlxFromManualIndexOutwardBlockyIterator @ 81 NONAME
	_ZTV14CGlxListWindow @ 82 NONAME
	_ZTV21TGlxExclusionIterator @ 83 NONAME
	_ZTV21TGlxSelectionIterator @ 84 NONAME
	_ZTV22TGlxSequentialIterator @ 85 NONAME
	_ZTV22TGlxSpecificIdIterator @ 86 NONAME
	_ZTV25TGlxFirstThenLastIterator @ 87 NONAME
	_ZTV28TGlxFromFocusOutwardIterator @ 88 NONAME
	_ZTV33TGlxFromManualIndexBlockyIterator @ 89 NONAME
	_ZTV34TGlxFromFocusOutwardBlockyIterator @ 90 NONAME
	_ZTV34TGlxFromIndexOutwardBlockyIterator @ 91 NONAME
	_ZTV40TGlxFromManualIndexOutwardBlockyIterator @ 92 NONAME

