EXPORTS
	??0CGlxIconManager@@IAE@AAVMGlxMediaList@@AAVMGlxVisualList@@@Z @ 1 NONAME ; CGlxIconManager::CGlxIconManager(class MGlxMediaList &, class MGlxVisualList &)
	??0TGlxIconManagerParams@@QAE@MMMMM@Z @ 2 NONAME ; TGlxIconManagerParams::TGlxIconManagerParams(float, float, float, float, float)
	??1CGlxIconManager@@UAE@XZ @ 3 NONAME ; CGlxIconManager::~CGlxIconManager(void)
	??1CGlxVisualIconManager@@UAE@XZ @ 4 NONAME ; CGlxVisualIconManager::~CGlxVisualIconManager(void)
	?AddIconToItemL@CGlxIconManager@@UAEXHH@Z @ 5 NONAME ; void CGlxIconManager::AddIconToItemL(int, int)
	?AddIconToItemL@CGlxIconManager@@UAEXPAVCAlfVisual@@H@Z @ 6 NONAME ; void CGlxIconManager::AddIconToItemL(class CAlfVisual *, int)
	?AllocListL@CGlxVisualListManager@@QAEPAVMGlxVisualList@@AAVMGlxMediaList@@AAVCAlfEnv@@AAVCAlfDisplay@@W4TScaleMode@CAlfImageVisual@@@Z @ 7 NONAME ; class MGlxVisualList * CGlxVisualListManager::AllocListL(class MGlxMediaList &, class CAlfEnv &, class CAlfDisplay &, enum CAlfImageVisual::TScaleMode)
	?BaseConstructL@CGlxIconManager@@QAEXXZ @ 8 NONAME ; void CGlxIconManager::BaseConstructL(void)
	?BrushPositionInVisual@CGlxIconManager@@UAEHHH@Z @ 9 NONAME ; int CGlxIconManager::BrushPositionInVisual(int, int)
	?BrushPositionInVisual@CGlxIconManager@@UAEHPAVCAlfVisual@@H@Z @ 10 NONAME ; int CGlxIconManager::BrushPositionInVisual(class CAlfVisual *, int)
	?Close@CGlxVisualListManager@@QAEXXZ @ 11 NONAME ; void CGlxVisualListManager::Close(void)
	?CreateVisualFromIconL@CGlxIconManager@@UAEXHAAVTDesC16@@@Z @ 12 NONAME ; void CGlxIconManager::CreateVisualFromIconL(int, class TDesC16 &)
	?CreateVisualFromIconL@CGlxIconManager@@UAEXHAAVTDesC16@@AAVTGlxIconManagerParams@@@Z @ 13 NONAME ; void CGlxIconManager::CreateVisualFromIconL(int, class TDesC16 &, class TGlxIconManagerParams &)
	?CreateVisualFromTextureL@CGlxIconManager@@UAEXAAVCAlfTexture@@@Z @ 14 NONAME ; void CGlxIconManager::CreateVisualFromTextureL(class CAlfTexture &)
	?CreateVisualFromTextureL@CGlxIconManager@@UAEXAAVCAlfTexture@@AAVTGlxIconManagerParams@@@Z @ 15 NONAME ; void CGlxIconManager::CreateVisualFromTextureL(class CAlfTexture &, class TGlxIconManagerParams &)
	?ListL@CGlxVisualListManager@@QAEPAVMGlxVisualList@@AAVMGlxMediaList@@AAVCAlfEnv@@AAVCAlfDisplay@@W4TScaleMode@CAlfImageVisual@@@Z @ 16 NONAME ; class MGlxVisualList * CGlxVisualListManager::ListL(class MGlxMediaList &, class CAlfEnv &, class CAlfDisplay &, enum CAlfImageVisual::TScaleMode)
	?ManagerL@CGlxVisualListManager@@SAPAV1@XZ @ 17 NONAME ; class CGlxVisualListManager * CGlxVisualListManager::ManagerL(void)
	?NewL@CGlxBorderIconManager@@SAPAV1@AAVMGlxMediaList@@AAVMGlxVisualList@@@Z @ 18 NONAME ; class CGlxBorderIconManager * CGlxBorderIconManager::NewL(class MGlxMediaList &, class MGlxVisualList &)
	?NewL@CGlxVideoIconManager@@SAPAV1@AAVMGlxMediaList@@AAVMGlxVisualList@@@Z @ 19 NONAME ; class CGlxVideoIconManager * CGlxVideoIconManager::NewL(class MGlxMediaList &, class MGlxVisualList &)
	?NewL@CGlxVisualIconManager@@SAPAV1@AAVMGlxMediaList@@AAVMGlxVisualList@@@Z @ 20 NONAME ; class CGlxVisualIconManager * CGlxVisualIconManager::NewL(class MGlxMediaList &, class MGlxVisualList &)
	?ReleaseList@CGlxVisualListManager@@QAEXPAVMGlxVisualList@@@Z @ 21 NONAME ; void CGlxVisualListManager::ReleaseList(class MGlxVisualList *)
	?RemoveFromItem@CGlxIconManager@@UAEXHH@Z @ 22 NONAME ; void CGlxIconManager::RemoveFromItem(int, int)
	?RemoveFromItem@CGlxIconManager@@UAEXPAVCAlfVisual@@H@Z @ 23 NONAME ; void CGlxIconManager::RemoveFromItem(class CAlfVisual *, int)
	?SetScaleMode@CGlxVisualObject@@QAEXW4TScaleMode@CAlfImageVisual@@@Z @ 24 NONAME ; void CGlxVisualObject::SetScaleMode(enum CAlfImageVisual::TScaleMode)
	?SetThumbnailBorderColor@CGlxBorderIconManager@@QAEXXZ @ 25 NONAME ; void CGlxBorderIconManager::SetThumbnailBorderColor(void)

