EXPORTS
	?launchProgressDialog@GlxViewManager@@QAEXH@Z @ 1 NONAME ; void GlxViewManager::launchProgressDialog(int)
	?updateToolBarIcon@GlxViewManager@@QAEXH@Z @ 2 NONAME ; void GlxViewManager::updateToolBarIcon(int)
	?tr@GlxViewManager@@SA?AVQString@@PBD0@Z @ 3 NONAME ; class QString GlxViewManager::tr(char const *, char const *)
	?getStaticMetaObject@GlxViewManager@@SAABUQMetaObject@@XZ @ 4 NONAME ; struct QMetaObject const & GlxViewManager::getStaticMetaObject(void)
	?effectFinished@GlxViewManager@@QAEXXZ @ 5 NONAME ; void GlxViewManager::effectFinished(void)
	?updateProgressDialog@GlxViewManager@@QAEXH@Z @ 6 NONAME ; void GlxViewManager::updateProgressDialog(int)
	?qt_metacast@GlxViewManager@@UAEPAXPBD@Z @ 7 NONAME ; void * GlxViewManager::qt_metacast(char const *)
	??_EGlxViewManager@@UAE@I@Z @ 8 NONAME ; GlxViewManager::~GlxViewManager(unsigned int)
	?addBackSoftKeyAction@GlxViewManager@@QAEXXZ @ 9 NONAME ; void GlxViewManager::addBackSoftKeyAction(void)
	?findView@GlxViewManager@@AAEPAVGlxView@@H@Z @ 10 NONAME ; class GlxView * GlxViewManager::findView(int)
	?enterMarkingMode@GlxViewManager@@QAEXHH@Z @ 11 NONAME ; void GlxViewManager::enterMarkingMode(int, int)
	?setMarkingToolBarAction@GlxViewManager@@AAEXH@Z @ 12 NONAME ; void GlxViewManager::setMarkingToolBarAction(int)
	?createActions@GlxViewManager@@AAEXXZ @ 13 NONAME ; void GlxViewManager::createActions(void)
	?staticMetaObject@GlxViewManager@@2UQMetaObject@@B @ 14 NONAME ; struct QMetaObject const GlxViewManager::staticMetaObject
	?handleAction@GlxViewManager@@QAEXXZ @ 15 NONAME ; void GlxViewManager::handleAction(void)
	?handleUserAction@GlxViewManager@@QAEXHH@Z @ 16 NONAME ; void GlxViewManager::handleUserAction(int, int)
	?metaObject@GlxViewManager@@UBEPBUQMetaObject@@XZ @ 17 NONAME ; struct QMetaObject const * GlxViewManager::metaObject(void) const
	?actionTriggered@GlxViewManager@@IAEXH@Z @ 18 NONAME ; void GlxViewManager::actionTriggered(int)
	?getSubState@GlxViewManager@@AAEHXZ @ 19 NONAME ; int GlxViewManager::getSubState(void)
	?launchView@GlxViewManager@@QAEXHPAVQAbstractItemModel@@W4GlxEffect@@W4GlxViewEffect@@@Z @ 20 NONAME ; void GlxViewManager::launchView(int, class QAbstractItemModel *, enum GlxEffect, enum GlxViewEffect)
	??0GlxViewManager@@QAE@XZ @ 21 NONAME ; GlxViewManager::GlxViewManager(void)
	?exitMarkingMode@GlxViewManager@@QAEXH@Z @ 22 NONAME ; void GlxViewManager::exitMarkingMode(int)
	?setModel@GlxViewManager@@QAEXPAVQAbstractItemModel@@@Z @ 23 NONAME ; void GlxViewManager::setModel(class QAbstractItemModel *)
	?createToolBar@GlxViewManager@@AAEXXZ @ 24 NONAME ; void GlxViewManager::createToolBar(void)
	?removeConnection@GlxViewManager@@AAEXXZ @ 25 NONAME ; void GlxViewManager::removeConnection(void)
	?launchView@GlxViewManager@@QAEXHPAVQAbstractItemModel@@@Z @ 26 NONAME ; void GlxViewManager::launchView(int, class QAbstractItemModel *)
	?createMarkingModeActions@GlxViewManager@@AAEXXZ @ 27 NONAME ; void GlxViewManager::createMarkingModeActions(void)
	?qt_metacall@GlxViewManager@@UAEHW4Call@QMetaObject@@HPAPAX@Z @ 28 NONAME ; int GlxViewManager::qt_metacall(enum QMetaObject::Call, int, void * *)
	?deActivateView@GlxViewManager@@AAEXXZ @ 29 NONAME ; void GlxViewManager::deActivateView(void)
	?destroyView@GlxViewManager@@QAEXH@Z @ 30 NONAME ; void GlxViewManager::destroyView(int)
	?resolveView@GlxViewManager@@AAEPAVGlxView@@H@Z @ 31 NONAME ; class GlxView * GlxViewManager::resolveView(int)
	??1GlxViewManager@@UAE@XZ @ 32 NONAME ; GlxViewManager::~GlxViewManager(void)
	?getSelectionModel@GlxViewManager@@QAEPAVQItemSelectionModel@@H@Z @ 33 NONAME ; class QItemSelectionModel * GlxViewManager::getSelectionModel(int)
	?addConnection@GlxViewManager@@AAEXXZ @ 34 NONAME ; void GlxViewManager::addConnection(void)
	?hideProgressDialog@GlxViewManager@@AAEXXZ @ 35 NONAME ; void GlxViewManager::hideProgressDialog(void)
	?handleReadyView@GlxViewManager@@QAEXXZ @ 36 NONAME ; void GlxViewManager::handleReadyView(void)
	?orientation@GlxViewManager@@QBE?AW4Orientation@Qt@@XZ @ 37 NONAME ; enum Qt::Orientation GlxViewManager::orientation(void) const
	?createMarkingModeToolBar@GlxViewManager@@AAEXXZ @ 38 NONAME ; void GlxViewManager::createMarkingModeToolBar(void)
	?checkMarked@GlxViewManager@@AAEXXZ @ 39 NONAME ; void GlxViewManager::checkMarked(void)
	?itemSpecificMenuTriggered@GlxViewManager@@QAEXHVQPointF@@@Z @ 40 NONAME ; void GlxViewManager::itemSpecificMenuTriggered(int, class QPointF)
	?setupItems@GlxViewManager@@QAEXXZ @ 41 NONAME ; void GlxViewManager::setupItems(void)
	?actionProcess@GlxViewManager@@QAEXH@Z @ 42 NONAME ; void GlxViewManager::actionProcess(int)
	?deactivateCurrentView@GlxViewManager@@QAEXXZ @ 43 NONAME ; void GlxViewManager::deactivateCurrentView(void)
	?trUtf8@GlxViewManager@@SA?AVQString@@PBD0H@Z @ 44 NONAME ; class QString GlxViewManager::trUtf8(char const *, char const *, int)
	?trUtf8@GlxViewManager@@SA?AVQString@@PBD0@Z @ 45 NONAME ; class QString GlxViewManager::trUtf8(char const *, char const *)
	?cancelViewTransitionEffect@GlxViewManager@@QAEXXZ @ 46 NONAME ; void GlxViewManager::cancelViewTransitionEffect(void)
	?launchApplication@GlxViewManager@@QAEXHPAVQAbstractItemModel@@@Z @ 47 NONAME ; void GlxViewManager::launchApplication(int, class QAbstractItemModel *)
	?tr@GlxViewManager@@SA?AVQString@@PBD0H@Z @ 48 NONAME ; class QString GlxViewManager::tr(char const *, char const *, int)
	?activateView@GlxViewManager@@AAEXXZ @ 49 NONAME ; void GlxViewManager::activateView(void)
	?updateToolBarActionState@GlxViewManager@@QAEXH_N@Z @ 50 NONAME ; void GlxViewManager::updateToolBarActionState(int, bool)

