EXPORTS
	?ViewNavigationDirection@CGlxUiUtility@@QAE?AW4TGlxNavigationDirection@@XZ @ 1 NONAME ; enum TGlxNavigationDirection CGlxUiUtility::ViewNavigationDirection(void)
	?SetRotatedImageSize@CGlxUiUtility@@QAEXVTSize@@@Z @ 2 NONAME ; void CGlxUiUtility::SetRotatedImageSize(class TSize)
	?NewL@CGlxMMCNotifier@@SAPAV1@AAVMStorageNotifierObserver@@@Z @ 3 NONAME ; class CGlxMMCNotifier * CGlxMMCNotifier::NewL(class MStorageNotifierObserver &)
	?NewL@CGlxScreenFurniture@@SAPAV1@AAVCGlxUiUtility@@@Z @ 4 NONAME ; class CGlxScreenFurniture * CGlxScreenFurniture::NewL(class CGlxUiUtility &)
	?SetExitingState@CGlxUiUtility@@QAEXH@Z @ 5 NONAME ; void CGlxUiUtility::SetExitingState(int)
	?ExecuteLD@CGlxTextEntryPopup@@QAEHXZ @ 6 NONAME ; int CGlxTextEntryPopup::ExecuteLD(void)
	?StopTNMDaemon@CGlxUiUtility@@QAEHXZ @ 7 NONAME ; int CGlxUiUtility::StopTNMDaemon(void)
	?ShowAlfDisplayL@CGlxUiUtility@@SAXXZ @ 8 NONAME ; void CGlxUiUtility::ShowAlfDisplayL(void)
	?IsLandscape@GlxGeneralUiUtilities@@SAHXZ @ 9 NONAME ; int GlxGeneralUiUtilities::IsLandscape(void)
	?SetToolbarPosition@CGlxScreenFurniture@@QAEXXZ @ 10 NONAME ; void CGlxScreenFurniture::SetToolbarPosition(void)
	?ViewDeactivated@CGlxScreenFurniture@@QAEXH@Z @ 11 NONAME ; void CGlxScreenFurniture::ViewDeactivated(int)
	?SetGridToolBar@CGlxUiUtility@@QAEXPAVCAknToolbar@@@Z @ 12 NONAME ; void CGlxUiUtility::SetGridToolBar(class CAknToolbar *)
	?AppState@GlxSetAppState@@SA?AW4TGlxAppState@@XZ @ 13 NONAME ; enum TGlxAppState GlxSetAppState::AppState(void)
	?ShowInfoNoteL@GlxGeneralUiUtilities@@SAXABVTDesC16@@H@Z @ 14 NONAME ; void GlxGeneralUiUtilities::ShowInfoNoteL(class TDesC16 const &, int)
	?RemoveSkinChangeObserver@CGlxUiUtility@@QAEXAAVMGlxSkinChangeObserver@@@Z @ 15 NONAME ; void CGlxUiUtility::RemoveSkinChangeObserver(class MGlxSkinChangeObserver &)
	?UtilityL@CGlxUiUtility@@SAPAV1@XZ @ 16 NONAME ; class CGlxUiUtility * CGlxUiUtility::UtilityL(void)
	?StartTNMDaemon@CGlxUiUtility@@QAEHXZ @ 17 NONAME ; int CGlxUiUtility::StartTNMDaemon(void)
	?HideAlfDisplayL@CGlxUiUtility@@SAXXZ @ 18 NONAME ; void CGlxUiUtility::HideAlfDisplayL(void)
	?SetState@GlxSetAppState@@SAXW4TGlxAppState@@@Z @ 19 NONAME ; void GlxSetAppState::SetState(enum TGlxAppState)
	?AddSkinChangeObserverL@CGlxUiUtility@@QAEXAAVMGlxSkinChangeObserver@@@Z @ 20 NONAME ; void CGlxUiUtility::AddSkinChangeObserverL(class MGlxSkinChangeObserver &)
	?SetTooltipL@CGlxScreenFurniture@@QAEXHW4TTooltipPosition@CAknButton@@ABVTDesC16@@@Z @ 21 NONAME ; void CGlxScreenFurniture::SetTooltipL(int, enum CAknButton::TTooltipPosition, class TDesC16 const &)
	?GetRotatedImageSize@CGlxUiUtility@@QAE?AVTSize@@XZ @ 22 NONAME ; class TSize CGlxUiUtility::GetRotatedImageSize(void)
	?SetToolbarVisibility@CGlxScreenFurniture@@QAEXH@Z @ 23 NONAME ; void CGlxScreenFurniture::SetToolbarVisibility(int)
	?IsPenSupported@CGlxUiUtility@@QAEHXZ @ 24 NONAME ; int CGlxUiUtility::IsPenSupported(void)
	?IsExitingState@CGlxUiUtility@@QAEHXZ @ 25 NONAME ; int CGlxUiUtility::IsExitingState(void)
	?DisplayScreenClearerL@CGlxUiUtility@@QAEXXZ @ 26 NONAME ; void CGlxUiUtility::DisplayScreenClearerL(void)
	?SetToolbarItemDimmed@CGlxScreenFurniture@@QAEXHH@Z @ 27 NONAME ; void CGlxScreenFurniture::SetToolbarItemDimmed(int, int)
	?Display@CGlxUiUtility@@QBEPAVCAlfDisplay@@XZ @ 28 NONAME ; class CAlfDisplay * CGlxUiUtility::Display(void) const
	?NewL@CGlxProgressIndicator@@SAPAV1@AAVMDialogDismisedObserver@@@Z @ 29 NONAME ; class CGlxProgressIndicator * CGlxProgressIndicator::NewL(class MDialogDismisedObserver &)
	?SetViewNavigationDirection@CGlxUiUtility@@QAEXW4TGlxNavigationDirection@@@Z @ 30 NONAME ; void CGlxUiUtility::SetViewNavigationDirection(enum TGlxNavigationDirection)
	?SetTNMDaemonPSKeyvalue@CGlxUiUtility@@QAEHXZ @ 31 NONAME ; int CGlxUiUtility::SetTNMDaemonPSKeyvalue(void)
	?ConfirmQueryL@GlxGeneralUiUtilities@@SAHHABVTDesC16@@@Z @ 32 NONAME ; int GlxGeneralUiUtilities::ConfirmQueryL(int, class TDesC16 const &)
	?SetFocusL@CGlxScreenFurniture@@QAEXH@Z @ 33 NONAME ; void CGlxScreenFurniture::SetFocusL(int)
	?GetGridIconSize@CGlxUiUtility@@QAE?AVTSize@@XZ @ 34 NONAME ; class TSize CGlxUiUtility::GetGridIconSize(void)
	?VisibleItemsInPageGranularityL@CGlxUiUtility@@QAEHXZ @ 35 NONAME ; int CGlxUiUtility::VisibleItemsInPageGranularityL(void)
	?GetKeyguardStatus@CGlxUiUtility@@QAEHXZ @ 36 NONAME ; int CGlxUiUtility::GetKeyguardStatus(void)
	?GlxTextureManager@CGlxUiUtility@@QAEAAVCGlxTextureManager@@XZ @ 37 NONAME ; class CGlxTextureManager & CGlxUiUtility::GlxTextureManager(void)
	?RegisterActiveMediaList@CGlxActiveMediaListRegistry@@QAEXPAVMGlxMediaList@@@Z @ 38 NONAME ; void CGlxActiveMediaListRegistry::RegisterActiveMediaList(class MGlxMediaList *)
	?ShowErrorNoteL@GlxGeneralUiUtilities@@SAXH@Z @ 39 NONAME ; void GlxGeneralUiUtilities::ShowErrorNoteL(int)
	?AppOrientation@CGlxUiUtility@@QBE?AW4TGlxOrientation@@XZ @ 40 NONAME ; enum TGlxOrientation CGlxUiUtility::AppOrientation(void) const
	?FormatString@GlxGeneralUiUtilities@@SAXAAVTDes16@@ABVTDesC16@@HHH@Z @ 41 NONAME ; void GlxGeneralUiUtilities::FormatString(class TDes16 &, class TDesC16 const &, int, int, int)
	?DismissProgressDialog@CGlxProgressIndicator@@QAEXXZ @ 42 NONAME ; void CGlxProgressIndicator::DismissProgressDialog(void)
	?NewLC@CGlxScreenFurniture@@SAPAV1@AAVCGlxUiUtility@@@Z @ 43 NONAME ; class CGlxScreenFurniture * CGlxScreenFurniture::NewLC(class CGlxUiUtility &)
	?LayoutIsMirrored@GlxGeneralUiUtilities@@SAHXZ @ 44 NONAME ; int GlxGeneralUiUtilities::LayoutIsMirrored(void)
	?HandleTvStatusChangedL@CGlxUiUtility@@UAEXW4TTvChangeType@@@Z @ 45 NONAME ; void CGlxUiUtility::HandleTvStatusChangedL(enum TTvChangeType)
	?Close@CGlxUiUtility@@QAEXXZ @ 46 NONAME ; void CGlxUiUtility::Close(void)
	?ModifySoftkeyIdL@CGlxScreenFurniture@@QAEXW4TCommandPosition@CEikButtonGroupContainer@@HHABVTDesC16@@@Z @ 47 NONAME ; void CGlxScreenFurniture::ModifySoftkeyIdL(enum CEikButtonGroupContainer::TCommandPosition, int, int, class TDesC16 const &)
	?CreateViewAnimationL@GlxAnimationFactory@@SAPAVMGlxAnimation@@W4TGlxViewswitchAnimation@@W4TGlxNavigationDirection@@AAV?$RPointerArray@VCAlfControlGroup@@@@@Z @ 48 NONAME ; class MGlxAnimation * GlxAnimationFactory::CreateViewAnimationL(enum TGlxViewswitchAnimation, enum TGlxNavigationDirection, class RPointerArray<class CAlfControlGroup> &)
	?ControlTNDaemon@CGlxProgressIndicator@@QAEXH@Z @ 49 NONAME ; void CGlxProgressIndicator::ControlTNDaemon(int)
	?GetItemsLeftCount@CGlxUiUtility@@QAEHXZ @ 50 NONAME ; int CGlxUiUtility::GetItemsLeftCount(void)
	?ShowProgressbarL@CGlxProgressIndicator@@QAEXXZ @ 51 NONAME ; void CGlxProgressIndicator::ShowProgressbarL(void)
	?DisplaySize@CGlxUiUtility@@QBE?AVTSize@@XZ @ 52 NONAME ; class TSize CGlxUiUtility::DisplaySize(void) const
	?SetActiveView@CGlxScreenFurniture@@QAEXH@Z @ 53 NONAME ; void CGlxScreenFurniture::SetActiveView(int)
	?ShowErrorNoteL@GlxGeneralUiUtilities@@SAXABVTDesC16@@H@Z @ 54 NONAME ; void GlxGeneralUiUtilities::ShowErrorNoteL(class TDesC16 const &, int)
	?GetGridToolBar@CGlxUiUtility@@QAEPAVCAknToolbar@@XZ @ 55 NONAME ; class CAknToolbar * CGlxUiUtility::GetGridToolBar(void)
	?NewL@CGlxRelaseGPUMemory@@SAPAV1@AAVMGoomNotifierObserver@@@Z @ 56 NONAME ; class CGlxRelaseGPUMemory * CGlxRelaseGPUMemory::NewL(class MGoomNotifierObserver &)
	?SetLeftSoftKeyL@CGlxTextEntryPopup@@QAEXH@Z @ 57 NONAME ; void CGlxTextEntryPopup::SetLeftSoftKeyL(int)
	?DestroyScreenClearer@CGlxUiUtility@@QAEXXZ @ 58 NONAME ; void CGlxUiUtility::DestroyScreenClearer(void)
	?SetToolbarItemVisibility@CGlxScreenFurniture@@QAEXHH@Z @ 59 NONAME ; void CGlxScreenFurniture::SetToolbarItemVisibility(int, int)
	?Env@CGlxUiUtility@@QAEPAVCAlfEnv@@XZ @ 60 NONAME ; class CAlfEnv * CGlxUiUtility::Env(void)
	?RetrieveL@GlxAttributeRetriever@@SAHABVMGlxFetchContext@@AAVMGlxMediaList@@H@Z @ 61 NONAME ; int GlxAttributeRetriever::RetrieveL(class MGlxFetchContext const &, class MGlxMediaList &, int)
	?TextStyleIdL@CGlxUiUtility@@QAEHHH@Z @ 62 NONAME ; int CGlxUiUtility::TextStyleIdL(int, int)
	?InstanceL@CGlxActiveMediaListRegistry@@SAPAV1@PAVMGlxActiveMediaListChangeObserver@@@Z @ 63 NONAME ; class CGlxActiveMediaListRegistry * CGlxActiveMediaListRegistry::InstanceL(class MGlxActiveMediaListChangeObserver *)
	?CreateImageLoadingAnimationL@GlxAnimationFactory@@SAPAVMGlxAnimation@@AAVCAlfVisual@@AAVCAlfTexture@@@Z @ 64 NONAME ; class MGlxAnimation * GlxAnimationFactory::CreateImageLoadingAnimationL(class CAlfVisual &, class CAlfTexture &)
	?DeregisterActiveMediaList@CGlxActiveMediaListRegistry@@QAEXPAVMGlxMediaList@@@Z @ 65 NONAME ; void CGlxActiveMediaListRegistry::DeregisterActiveMediaList(class MGlxMediaList *)
	?SetAppOrientationL@CGlxUiUtility@@QAEXW4TGlxOrientation@@@Z @ 66 NONAME ; void CGlxUiUtility::SetAppOrientationL(enum TGlxOrientation)
	?ConfirmQueryL@GlxGeneralUiUtilities@@SAHABVTDesC16@@@Z @ 67 NONAME ; int GlxGeneralUiUtilities::ConfirmQueryL(class TDesC16 const &)
	?RequestMemory@CGlxRelaseGPUMemory@@QAEXXZ @ 68 NONAME ; void CGlxRelaseGPUMemory::RequestMemory(void)
	?NewL@CGlxTextEntryPopup@@SAPAV1@ABVTDesC16@@AAVTDes16@@@Z @ 69 NONAME ; class CGlxTextEntryPopup * CGlxTextEntryPopup::NewL(class TDesC16 const &, class TDes16 &)
	?CreateViewAnimationL@GlxAnimationFactory@@SAPAVMGlxAnimation@@W4TGlxViewswitchAnimation@@W4TGlxNavigationDirection@@PAVCAlfControlGroup@@@Z @ 70 NONAME ; class MGlxAnimation * GlxAnimationFactory::CreateViewAnimationL(enum TGlxViewswitchAnimation, enum TGlxNavigationDirection, class CAlfControlGroup *)
	?ShowConfirmationNoteL@GlxGeneralUiUtilities@@SAXABVTDesC16@@H@Z @ 71 NONAME ; void GlxGeneralUiUtilities::ShowConfirmationNoteL(class TDesC16 const &, int)
	?ScreenFurniture@CGlxUiUtility@@QAEPAVCGlxScreenFurniture@@XZ @ 72 NONAME ; class CGlxScreenFurniture * CGlxUiUtility::ScreenFurniture(void)
	?InstanceL@MGlxActiveMediaListResolver@@SAPAV1@PAVMGlxActiveMediaListChangeObserver@@@Z @ 73 NONAME ; class MGlxActiveMediaListResolver * MGlxActiveMediaListResolver::InstanceL(class MGlxActiveMediaListChangeObserver *)

