EXPORTS
	?addExternalItems@GlxMediaModel@@QAEXPAV?$QList@UGlxInterfaceParams@@@@@Z @ 1 NONAME ; void GlxMediaModel::addExternalItems(class QList<struct GlxInterfaceParams> *)
	?metaObject@GlxMediaModel@@UBEPBUQMetaObject@@XZ @ 2 NONAME ; struct QMetaObject const * GlxMediaModel::metaObject(void) const
	?parent@GlxMediaModel@@UBE?AVQModelIndex@@ABV2@@Z @ 3 NONAME ; class QModelIndex GlxMediaModel::parent(class QModelIndex const &) const
	?itemsAdded@GlxMediaModel@@QAEXHH@Z @ 4 NONAME ; void GlxMediaModel::itemsAdded(int, int)
	?tr@GlxMediaModel@@SA?AVQString@@PBD0@Z @ 5 NONAME ; class QString GlxMediaModel::tr(char const *, char const *)
	?getStaticMetaObject@GlxMediaModel@@SAABUQMetaObject@@XZ @ 6 NONAME ; struct QMetaObject const & GlxMediaModel::getStaticMetaObject(void)
	?updateItemIcon@GlxMediaModel@@AAEXHPAVHbIcon@@W4GlxTBContextType@@@Z @ 7 NONAME ; void GlxMediaModel::updateItemIcon(int, class HbIcon *, enum GlxTBContextType)
	?qt_metacast@GlxMediaModel@@UAEPAXPBD@Z @ 8 NONAME ; void * GlxMediaModel::qt_metacast(char const *)
	?itemsRemoved@GlxMediaModel@@QAEXHH@Z @ 9 NONAME ; void GlxMediaModel::itemsRemoved(int, int)
	?rowCount@GlxMediaModel@@UBEHABVQModelIndex@@@Z @ 10 NONAME ; int GlxMediaModel::rowCount(class QModelIndex const &) const
	??1GlxMediaModel@@UAE@XZ @ 11 NONAME ; GlxMediaModel::~GlxMediaModel(void)
	?GetFsIconItem@GlxMediaModel@@ABEPAVHbIcon@@HW4GlxTBContextType@@@Z @ 12 NONAME ; class HbIcon * GlxMediaModel::GetFsIconItem(int, enum GlxTBContextType) const
	?columnCount@GlxMediaModel@@UBEHABVQModelIndex@@@Z @ 13 NONAME ; int GlxMediaModel::columnCount(class QModelIndex const &) const
	?setSelectedIndex@GlxMediaModel@@AAEXABVQModelIndex@@@Z @ 14 NONAME ; void GlxMediaModel::setSelectedIndex(class QModelIndex const &)
	?qt_metacall@GlxMediaModel@@UAEHW4Call@QMetaObject@@HPAPAX@Z @ 15 NONAME ; int GlxMediaModel::qt_metacall(enum QMetaObject::Call, int, void * *)
	?setFocusIndex@GlxMediaModel@@AAEXABVQModelIndex@@@Z @ 16 NONAME ; void GlxMediaModel::setFocusIndex(class QModelIndex const &)
	?setContextMode@GlxMediaModel@@AAEXW4GlxContextMode@@@Z @ 17 NONAME ; void GlxMediaModel::setContextMode(enum GlxContextMode)
	?trUtf8@GlxMediaModel@@SA?AVQString@@PBD0H@Z @ 18 NONAME ; class QString GlxMediaModel::trUtf8(char const *, char const *, int)
	?staticMetaObject@GlxMediaModel@@2UQMetaObject@@B @ 19 NONAME ; struct QMetaObject const GlxMediaModel::staticMetaObject
	?itemUpdated1@GlxMediaModel@@QAEXHW4GlxTBContextType@@@Z @ 20 NONAME ; void GlxMediaModel::itemUpdated1(int, enum GlxTBContextType)
	?setData@GlxMediaModel@@UAE_NABVQModelIndex@@ABVQVariant@@H@Z @ 21 NONAME ; bool GlxMediaModel::setData(class QModelIndex const &, class QVariant const &, int)
	?GetGridIconItem@GlxMediaModel@@ABEPAVHbIcon@@HW4GlxTBContextType@@@Z @ 22 NONAME ; class HbIcon * GlxMediaModel::GetGridIconItem(int, enum GlxTBContextType) const
	?data@GlxMediaModel@@UBE?AVQVariant@@ABVQModelIndex@@H@Z @ 23 NONAME ; class QVariant GlxMediaModel::data(class QModelIndex const &, int) const
	??_EGlxMediaModel@@UAE@I@Z @ 24 NONAME ; GlxMediaModel::~GlxMediaModel(unsigned int)
	?clearExternalItems@GlxMediaModel@@QAEXXZ @ 25 NONAME ; void GlxMediaModel::clearExternalItems(void)
	?getFocusIndex@GlxMediaModel@@ABE?AVQModelIndex@@XZ @ 26 NONAME ; class QModelIndex GlxMediaModel::getFocusIndex(void) const
	?trUtf8@GlxMediaModel@@SA?AVQString@@PBD0@Z @ 27 NONAME ; class QString GlxMediaModel::trUtf8(char const *, char const *)
	?iconAvailable@GlxMediaModel@@IBEXHPAVHbIcon@@W4GlxTBContextType@@@Z @ 28 NONAME ; void GlxMediaModel::iconAvailable(int, class HbIcon *, enum GlxTBContextType) const
	??0GlxMediaModel@@QAE@AAVGlxModelParm@@@Z @ 29 NONAME ; GlxMediaModel::GlxMediaModel(class GlxModelParm &)
	?tr@GlxMediaModel@@SA?AVQString@@PBD0H@Z @ 30 NONAME ; class QString GlxMediaModel::tr(char const *, char const *, int)
	?index@GlxMediaModel@@UBE?AVQModelIndex@@HHABV2@@Z @ 31 NONAME ; class QModelIndex GlxMediaModel::index(int, int, class QModelIndex const &) const
	?GetExternalIconItem@GlxMediaModel@@ABEPAVHbIcon@@HW4GlxTBContextType@@@Z @ 32 NONAME ; class HbIcon * GlxMediaModel::GetExternalIconItem(int, enum GlxTBContextType) const
	?itemCorrupted@GlxMediaModel@@QAEXH@Z @ 33 NONAME ; void GlxMediaModel::itemCorrupted(int)

