EXPORTS
	_ZN18CGlxCommandHandler11DoActivateLEi @ 1 NONAME
	_ZN18CGlxCommandHandler16PopulateToolbarLEv @ 2 NONAME
	_ZN18CGlxCommandHandler9ActivateLEi @ 3 NONAME
	_ZN18CGlxCommandHandlerC2Ei @ 4 NONAME
	_ZN18CGlxCommandHandlerD0Ev @ 5 NONAME
	_ZN18CGlxCommandHandlerD1Ev @ 6 NONAME
	_ZN18CGlxCommandHandlerD2Ev @ 7 NONAME
	_ZN27CGlxMediaListCommandHandler10DeactivateEv @ 8 NONAME
	_ZN27CGlxMediaListCommandHandler11AddCommandLERKNS_12TCommandInfoE @ 9 NONAME
	_ZN27CGlxMediaListCommandHandler11CommandInfoEi @ 10 NONAME
	_ZN27CGlxMediaListCommandHandler11DoActivateLEi @ 11 NONAME
	_ZN27CGlxMediaListCommandHandler12TCommandInfoC1Ei @ 12 NONAME
	_ZN27CGlxMediaListCommandHandler12TCommandInfoC2Ei @ 13 NONAME
	_ZN27CGlxMediaListCommandHandler14OfferKeyEventLERK9TKeyEvent10TEventCode @ 14 NONAME
	_ZN27CGlxMediaListCommandHandler16DynInitMenuPaneLEiP12CEikMenuPane @ 15 NONAME
	_ZN27CGlxMediaListCommandHandler18DoDynInitMenuPaneLEiP12CEikMenuPane @ 16 NONAME
	_ZN27CGlxMediaListCommandHandler19PreDynInitMenuPaneLEi @ 17 NONAME
	_ZN27CGlxMediaListCommandHandler8ExecuteLEi @ 18 NONAME
	_ZN27CGlxMediaListCommandHandler9MediaListEv @ 19 NONAME
	_ZN27CGlxMediaListCommandHandlerC2EP21MGlxMediaListProvideri @ 20 NONAME
	_ZN27CGlxMediaListCommandHandlerD0Ev @ 21 NONAME
	_ZN27CGlxMediaListCommandHandlerD1Ev @ 22 NONAME
	_ZN27CGlxMediaListCommandHandlerD2Ev @ 23 NONAME
	_ZN28CGlxMpxCommandCommandHandler10DeactivateEv @ 24 NONAME
	_ZN28CGlxMpxCommandCommandHandler10DoExecuteLEiR13MGlxMediaList @ 25 NONAME
	_ZN28CGlxMpxCommandCommandHandler11DoActivateLEi @ 26 NONAME
	_ZN28CGlxMpxCommandCommandHandler12HandleErrorLEi @ 27 NONAME
	_ZN28CGlxMpxCommandCommandHandler12HandleMediaLEiP13MGlxMediaList @ 28 NONAME
	_ZN28CGlxMpxCommandCommandHandler14HandleMessageLERK9CMPXMediaP13MGlxMediaList @ 29 NONAME
	_ZN28CGlxMpxCommandCommandHandler16DialogDismissedLEi @ 30 NONAME
	_ZN28CGlxMpxCommandCommandHandler16DoHandleMessageLERK9CMPXMediaR13MGlxMediaList @ 31 NONAME
	_ZN28CGlxMpxCommandCommandHandler16HandleItemAddedLEiiP13MGlxMediaList @ 32 NONAME
	_ZN28CGlxMpxCommandCommandHandler18DoHandleItemAddedLEiiP13MGlxMediaList @ 33 NONAME
	_ZN28CGlxMpxCommandCommandHandler18HandleItemRemovedLEiiP13MGlxMediaList @ 34 NONAME
	_ZN28CGlxMpxCommandCommandHandler19HandleFocusChangedLEN12NGlxListDefs16TFocusChangeTypeEiiP13MGlxMediaList @ 35 NONAME
	_ZN28CGlxMpxCommandCommandHandler19HandleItemModifiedLERK6RArrayIiEP13MGlxMediaList @ 36 NONAME
	_ZN28CGlxMpxCommandCommandHandler19HandleItemSelectedLEiiP13MGlxMediaList @ 37 NONAME
	_ZN28CGlxMpxCommandCommandHandler22HandleCommandCompleteLEPvP9CMPXMediaiP13MGlxMediaList @ 38 NONAME
	_ZN28CGlxMpxCommandCommandHandler24DoHandleCommandCompleteLEPvP9CMPXMediaiP13MGlxMediaList @ 39 NONAME
	_ZN28CGlxMpxCommandCommandHandler26HandleAttributesAvailableLEiRK6RArrayI13TMPXAttributeEP13MGlxMediaList @ 40 NONAME
	_ZN28CGlxMpxCommandCommandHandler8TryExitLEi @ 41 NONAME
	_ZN28CGlxMpxCommandCommandHandlerC2EP21MGlxMediaListProvideri @ 42 NONAME
	_ZN28CGlxMpxCommandCommandHandlerD0Ev @ 43 NONAME
	_ZN28CGlxMpxCommandCommandHandlerD1Ev @ 44 NONAME
	_ZN28CGlxMpxCommandCommandHandlerD2Ev @ 45 NONAME
	_ZNK27CGlxMediaListCommandHandler11IsDisabledLEiR13MGlxMediaList @ 46 NONAME
	_ZNK27CGlxMediaListCommandHandler11IsSupportedEi @ 47 NONAME
	_ZNK27CGlxMediaListCommandHandler12DoIsDisabledEiR13MGlxMediaList @ 48 NONAME
	_ZNK27CGlxMediaListCommandHandler12ViewingStateEv @ 49 NONAME
	_ZNK27CGlxMediaListCommandHandler15SelectionLengthEv @ 50 NONAME
	_ZNK27CGlxMediaListCommandHandler16CommandInfoIndexEi @ 51 NONAME
	_ZNK27CGlxMediaListCommandHandler20BypassFiltersForMenuEv @ 52 NONAME
	_ZNK27CGlxMediaListCommandHandler22GetRequiredAttributesLER6RArrayI13TMPXAttributeEiii @ 53 NONAME
	_ZNK27CGlxMediaListCommandHandler23BypassFiltersForExecuteEv @ 54 NONAME
	_ZNK27CGlxMediaListCommandHandler24DoGetRequiredAttributesLER6RArrayI13TMPXAttributeEi @ 55 NONAME
	_ZNK27CGlxMediaListCommandHandler9MediaListEv @ 56 NONAME
	_ZNK28CGlxMpxCommandCommandHandler13ProgressTextLEi @ 57 NONAME
	_ZNK28CGlxMpxCommandCommandHandler15CompletionTextLEv @ 58 NONAME
	_ZNK28CGlxMpxCommandCommandHandler17ConfirmationNoteLEiR13MGlxMediaList @ 59 NONAME
	_ZNK28CGlxMpxCommandCommandHandler17ConfirmationTextLEii @ 60 NONAME
	_ZNK28CGlxMpxCommandCommandHandler23ConfirmationNoteSingleLEiR13MGlxMediaList @ 61 NONAME
	_ZNK28CGlxMpxCommandCommandHandler25ConfirmationNoteMultipleLEiR13MGlxMediaList @ 62 NONAME
	_ZNK28CGlxMpxCommandCommandHandler8OkToExitEv @ 63 NONAME
	_ZTI18CGlxCommandHandler @ 64 NONAME ; #<TI>#
	_ZTI27CGlxMediaListCommandHandler @ 65 NONAME ; #<TI>#
	_ZTI28CGlxMpxCommandCommandHandler @ 66 NONAME ; #<TI>#
	_ZTV18CGlxCommandHandler @ 67 NONAME ; #<VT>#
	_ZTV27CGlxMediaListCommandHandler @ 68 NONAME ; #<VT>#
	_ZTV28CGlxMpxCommandCommandHandler @ 69 NONAME ; #<VT>#
	_ZThn48_N28CGlxMpxCommandCommandHandler12HandleMediaLEiP13MGlxMediaList @ 70 NONAME ; #<thunk>#
	_ZThn48_N28CGlxMpxCommandCommandHandler14HandleMessageLERK9CMPXMediaP13MGlxMediaList @ 71 NONAME ; #<thunk>#
	_ZThn48_N28CGlxMpxCommandCommandHandler16HandleItemAddedLEiiP13MGlxMediaList @ 72 NONAME ; #<thunk>#
	_ZThn48_N28CGlxMpxCommandCommandHandler18HandleItemRemovedLEiiP13MGlxMediaList @ 73 NONAME ; #<thunk>#
	_ZThn48_N28CGlxMpxCommandCommandHandler19HandleFocusChangedLEN12NGlxListDefs16TFocusChangeTypeEiiP13MGlxMediaList @ 74 NONAME ; #<thunk>#
	_ZThn48_N28CGlxMpxCommandCommandHandler19HandleItemModifiedLERK6RArrayIiEP13MGlxMediaList @ 75 NONAME ; #<thunk>#
	_ZThn48_N28CGlxMpxCommandCommandHandler19HandleItemSelectedLEiiP13MGlxMediaList @ 76 NONAME ; #<thunk>#
	_ZThn48_N28CGlxMpxCommandCommandHandler22HandleCommandCompleteLEPvP9CMPXMediaiP13MGlxMediaList @ 77 NONAME ; #<thunk>#
	_ZThn48_N28CGlxMpxCommandCommandHandler26HandleAttributesAvailableLEiRK6RArrayI13TMPXAttributeEP13MGlxMediaList @ 78 NONAME ; #<thunk>#
	_ZThn52_N28CGlxMpxCommandCommandHandler16DialogDismissedLEi @ 79 NONAME ; #<thunk>#

