EXPORTS
	_Z16CreateTestSuiteLv @ 1 NONAME
	_Z20CreateZoomedTextureLRK9TGlxMediaRK13TMPXAttribute6TGlxIdI17TGlxIdSpaceIdBaseERi @ 2 NONAME
	_Z23CreateThumbnailTextureL11TGlxMediaId6TGlxIdI17TGlxIdSpaceIdBaseERK5TSizeP19MGlxTextureObserverRi @ 3 NONAME
	_ZN14CGlxHuiUtility12TextStyleIdLEii @ 4 NONAME
	_ZN14CGlxHuiUtility15HideHuiDisplayLEv @ 5 NONAME
	_ZN14CGlxHuiUtility15ScreenFurnitureEv @ 6 NONAME
	_ZN14CGlxHuiUtility15ShowHuiDisplayLEv @ 7 NONAME
	_ZN14CGlxHuiUtility17GlxTextureManagerEv @ 8 NONAME
	_ZN14CGlxHuiUtility22HandleTvStatusChangedLE13TTvChangeType @ 9 NONAME
	_ZN14CGlxHuiUtility23ViewNavigationDirectionEv @ 10 NONAME
	_ZN14CGlxHuiUtility26SetViewNavigationDirectionE23TGlxNavigationDirection @ 11 NONAME
	_ZN14CGlxHuiUtility26UploadFlatColourToTextureLE4TRgbP11CHuiTexture @ 12 NONAME
	_ZN14CGlxHuiUtility27NotifyDisplayRefreshStartedER11CHuiDisplay @ 13 NONAME
	_ZN14CGlxHuiUtility5CloseEv @ 14 NONAME
	_ZN14CGlxHuiUtility8UtilityLEv @ 15 NONAME
	_ZN18CGlxTextureManager13RemoveTextureEi @ 16 NONAME
	_ZN18CGlxTextureManager18CreateIconTextureLEiR7TDesC165TSize @ 17 NONAME
	_ZN18CGlxTextureManager23CreateAvkonIconTextureLERK11TAknsItemIDi5TSize @ 18 NONAME
	_ZN18CGlxTextureManager24SetPreferredTextureSizeLERK20MHuiSegmentedTextureR5TSize @ 19 NONAME
	_ZN18CGlxTextureManager25CreateAnimatedGifTextureLERK7TDesC16 @ 20 NONAME
	_ZN18CGlxTextureManager26HandleAttributesAvailableLERK6TGlxIdI17TGlxIdSpaceIdBaseERK11TGlxMediaIdRK6RArrayI13TMPXAttributeEPK9CGlxMedia @ 21 NONAME
	_ZN18CGlxTextureManager4NewLER18CHuiTextureManager @ 22 NONAME
	_ZN18CGlxTextureManager5NewLCER18CHuiTextureManager @ 23 NONAME
	_ZN19CGlxScreenFurniture26IsActivePaletteItemVisibleEi @ 24 NONAME
	_ZN26CGlxCommandHandlerMoreInfo4NewLEP21MGlxMediaListProvideri @ 25 NONAME
	_ZN26CGlxCommandHandlerMoreInfoD0Ev @ 26 NONAME
	_ZN26CGlxCommandHandlerMoreInfoD1Ev @ 27 NONAME
	_ZN26CGlxCommandHandlerMoreInfoD2Ev @ 28 NONAME
	_ZN27CGlxMediaListCommandHandler10DeactivateEv @ 29 NONAME
	_ZN27CGlxMediaListCommandHandler11AddCommandLERKNS_12TCommandInfoE @ 30 NONAME
	_ZN27CGlxMediaListCommandHandler11CommandInfoEi @ 31 NONAME
	_ZN27CGlxMediaListCommandHandler12TCommandInfoC1Ei @ 32 NONAME
	_ZN27CGlxMediaListCommandHandler12TCommandInfoC2Ei @ 33 NONAME
	_ZN27CGlxMediaListCommandHandler14OfferKeyEventLERK9TKeyEvent10TEventCode @ 34 NONAME
	_ZN27CGlxMediaListCommandHandler16DynInitMenuPaneLEiP12CEikMenuPane @ 35 NONAME
	_ZN27CGlxMediaListCommandHandler18DoDynInitMenuPaneLEiP12CEikMenuPane @ 36 NONAME
	_ZN27CGlxMediaListCommandHandler19PreDynInitMenuPaneLEi @ 37 NONAME
	_ZN27CGlxMediaListCommandHandler8ExecuteLEi @ 38 NONAME
	_ZN27CGlxMediaListCommandHandler9ActivateLEi @ 39 NONAME
	_ZN27CGlxMediaListCommandHandler9MediaListEv @ 40 NONAME
	_ZN27CGlxMediaListCommandHandlerC2EP21MGlxMediaListProvider @ 41 NONAME
	_ZN27CGlxMediaListCommandHandlerD0Ev @ 42 NONAME
	_ZN27CGlxMediaListCommandHandlerD1Ev @ 43 NONAME
	_ZN27CGlxMediaListCommandHandlerD2Ev @ 44 NONAME
	_ZNK14CGlxHuiUtility11DisplaySizeEv @ 45 NONAME
	_ZNK14CGlxHuiUtility3EnvEv @ 46 NONAME
	_ZNK14CGlxHuiUtility7DisplayEv @ 47 NONAME
	_ZNK27CGlxMediaListCommandHandler11IsDisabledLEiR13MGlxMediaList @ 48 NONAME
	_ZNK27CGlxMediaListCommandHandler11IsSupportedEi @ 49 NONAME
	_ZNK27CGlxMediaListCommandHandler12DoIsDisabledEiR13MGlxMediaList @ 50 NONAME
	_ZNK27CGlxMediaListCommandHandler12ViewingStateEv @ 51 NONAME
	_ZNK27CGlxMediaListCommandHandler15SelectionLengthEv @ 52 NONAME
	_ZNK27CGlxMediaListCommandHandler16CommandInfoIndexEi @ 53 NONAME
	_ZNK27CGlxMediaListCommandHandler20BypassFiltersForMenuEv @ 54 NONAME
	_ZNK27CGlxMediaListCommandHandler22GetRequiredAttributesLER6RArrayI13TMPXAttributeEiii @ 55 NONAME
	_ZNK27CGlxMediaListCommandHandler23BypassFiltersForExecuteEv @ 56 NONAME
	_ZNK27CGlxMediaListCommandHandler24DoGetRequiredAttributesLER6RArrayI13TMPXAttributeEi @ 57 NONAME
	_ZNK27CGlxMediaListCommandHandler9MediaListEv @ 58 NONAME
	_ZTI14CGlxHuiUtility @ 59 NONAME ; #<TI>#
	_ZTI27CGlxMediaListCommandHandler @ 60 NONAME ; #<TI>#
	_ZTV14CGlxHuiUtility @ 61 NONAME ; #<VT>#
	_ZTV27CGlxMediaListCommandHandler @ 62 NONAME ; #<VT>#
	_ZThn4_N14CGlxHuiUtility22HandleTvStatusChangedLE13TTvChangeType @ 63 NONAME ; #<thunk>#
	_ZThn4_N26CGlxCommandHandlerMoreInfoD0Ev @ 64 NONAME ; #<thunk>#
	_ZThn4_N26CGlxCommandHandlerMoreInfoD1Ev @ 65 NONAME ; #<thunk>#
	_ZThn4_N27CGlxMediaListCommandHandler10DeactivateEv @ 66 NONAME ; #<thunk>#
	_ZThn4_N27CGlxMediaListCommandHandler14OfferKeyEventLERK9TKeyEvent10TEventCode @ 67 NONAME ; #<thunk>#
	_ZThn4_N27CGlxMediaListCommandHandler16DynInitMenuPaneLEiP12CEikMenuPane @ 68 NONAME ; #<thunk>#
	_ZThn4_N27CGlxMediaListCommandHandler19PreDynInitMenuPaneLEi @ 69 NONAME ; #<thunk>#
	_ZThn4_N27CGlxMediaListCommandHandler8ExecuteLEi @ 70 NONAME ; #<thunk>#
	_ZThn4_N27CGlxMediaListCommandHandler9ActivateLEi @ 71 NONAME ; #<thunk>#
	_ZThn4_N27CGlxMediaListCommandHandlerD0Ev @ 72 NONAME ; #<thunk>#
	_ZThn4_N27CGlxMediaListCommandHandlerD1Ev @ 73 NONAME ; #<thunk>#
	_ZThn4_NK27CGlxMediaListCommandHandler22GetRequiredAttributesLER6RArrayI13TMPXAttributeEiii @ 74 NONAME ; #<thunk>#
	_ZThn8_N14CGlxHuiUtility27NotifyDisplayRefreshStartedER11CHuiDisplay @ 75 NONAME ; #<thunk>#

