EXPORTS
	_ZN13CGlxCloudView4NewLEP20MGlxMediaListFactoryRK7TDesC16iiii @ 1 NONAME
	_ZN13CGlxCloudView5NewLCEP20MGlxMediaListFactoryRK7TDesC16iiii @ 2 NONAME
	_ZN14CGlxInfoBubble10ResetImageEv @ 3 NONAME
	_ZN14CGlxInfoBubble14BaseConstructLER11CAlfControlR7CAlfEnv @ 4 NONAME
	_ZN14CGlxInfoBubble14DisplayBubbleLE6TPointR11CAlfTextureRK7TDesC16S5_ @ 5 NONAME
	_ZN14CGlxInfoBubble14UpdateTextureLER11CAlfTexture @ 6 NONAME
	_ZN14CGlxInfoBubble15DisappearBubbleEv @ 7 NONAME
	_ZN14CGlxInfoBubble23CreateThumbnailTextureLERK9TGlxMediaRK6TGlxIdI17TGlxIdSpaceIdBaseERK5TSize @ 8 NONAME
	_ZN14CGlxInfoBubbleC1Ev @ 9 NONAME
	_ZN14CGlxInfoBubbleC2Ev @ 10 NONAME
	_ZN14CGlxInfoBubbleD0Ev @ 11 NONAME
	_ZN14CGlxInfoBubbleD1Ev @ 12 NONAME
	_ZN14CGlxInfoBubbleD2Ev @ 13 NONAME
	_ZN23CGlxContainerInfoBubble4NewLEP13MGlxMediaListR7CAlfEnvR11CAlfControl @ 14 NONAME
	_ZN23CGlxContainerInfoBubble5NewLCEP13MGlxMediaListR7CAlfEnvR11CAlfControl @ 15 NONAME
	_ZN3Alf16CGlxCloudViewImp4NewLEP20MGlxMediaListFactoryRK7TDesC16iiii @ 16 NONAME
	_ZN3Alf16CGlxCloudViewImp5NewLCEP20MGlxMediaListFactoryRK7TDesC16iiii @ 17 NONAME
	_ZTI14CGlxInfoBubble @ 18 NONAME ; #<TI>#
	_ZTI20CGlxCloudViewControl @ 19 NONAME ; #<TI>#
	_ZTI23CGlxContainerInfoBubble @ 20 NONAME ; #<TI>#
	_ZTV14CGlxInfoBubble @ 21 NONAME ; #<VT>#
	_ZTV20CGlxCloudViewControl @ 22 NONAME ; #<VT>#
	_ZTV23CGlxContainerInfoBubble @ 23 NONAME ; #<VT>#
	_ZTI26CGlxTagsContextMenuControl @ 24 NONAME
	_ZTV26CGlxTagsContextMenuControl @ 25 NONAME

