EXPORTS
	?HandleItemRemovedL@GlxMpxCommandHandler@@MAEXHHPAVMGlxMediaList@@@Z @ 1 NONAME ; void GlxMpxCommandHandler::HandleItemRemovedL(int, int, class MGlxMediaList *)
	?HandleMessageL@GlxMpxCommandHandler@@MAEXABVCMPXMedia@@PAVMGlxMediaList@@@Z @ 2 NONAME ; void GlxMpxCommandHandler::HandleMessageL(class CMPXMedia const &, class MGlxMediaList *)
	?HandleItemSelectedL@GlxMpxCommandHandler@@MAEXHHPAVMGlxMediaList@@@Z @ 3 NONAME ; void GlxMpxCommandHandler::HandleItemSelectedL(int, int, class MGlxMediaList *)
	?CreateMediaListAlbumItemL@GlxMpxCommandHandler@@AAEXHHW4TGlxFilterItemType@@@Z @ 4 NONAME ; void GlxMpxCommandHandler::CreateMediaListAlbumItemL(int, int, enum TGlxFilterItemType)
	??_EGlxCommandHandler@@UAE@I@Z @ 5 NONAME ; GlxCommandHandler::~GlxCommandHandler(unsigned int)
	??1GlxCommandHandler@@UAE@XZ @ 6 NONAME ; GlxCommandHandler::~GlxCommandHandler(void)
	??1GlxMpxCommandHandler@@UAE@XZ @ 7 NONAME ; GlxMpxCommandHandler::~GlxMpxCommandHandler(void)
	?executeCommand@GlxMpxCommandHandler@@UAEXHH@Z @ 8 NONAME ; void GlxMpxCommandHandler::executeCommand(int, int)
	?HandleItemAddedL@GlxMpxCommandHandler@@MAEXHHPAVMGlxMediaList@@@Z @ 9 NONAME ; void GlxMpxCommandHandler::HandleItemAddedL(int, int, class MGlxMediaList *)
	?HandleCommandCompleteL@GlxMpxCommandHandler@@MAEXPAXPAVCMPXMedia@@HPAVMGlxMediaList@@@Z @ 10 NONAME ; void GlxMpxCommandHandler::HandleCommandCompleteL(void *, class CMPXMedia *, int, class MGlxMediaList *)
	??0GlxCommandHandler@@QAE@XZ @ 11 NONAME ; GlxCommandHandler::GlxCommandHandler(void)
	?HandleMediaL@GlxMpxCommandHandler@@MAEXHPAVMGlxMediaList@@@Z @ 12 NONAME ; void GlxMpxCommandHandler::HandleMediaL(int, class MGlxMediaList *)
	??0GlxMpxCommandHandler@@QAE@XZ @ 13 NONAME ; GlxMpxCommandHandler::GlxMpxCommandHandler(void)
	?CreateMediaListL@GlxMpxCommandHandler@@AAEXHHW4TGlxFilterItemType@@@Z @ 14 NONAME ; void GlxMpxCommandHandler::CreateMediaListL(int, int, enum TGlxFilterItemType)
	??_EGlxMpxCommandHandler@@UAE@I@Z @ 15 NONAME ; GlxMpxCommandHandler::~GlxMpxCommandHandler(unsigned int)
	?HandleItemModifiedL@GlxMpxCommandHandler@@MAEXABV?$RArray@H@@PAVMGlxMediaList@@@Z @ 16 NONAME ; void GlxMpxCommandHandler::HandleItemModifiedL(class RArray<int> const &, class MGlxMediaList *)
	?DoHandleCommandCompleteL@GlxMpxCommandHandler@@MAEXPAXPAVCMPXMedia@@HPAVMGlxMediaList@@@Z @ 17 NONAME ; void GlxMpxCommandHandler::DoHandleCommandCompleteL(void *, class CMPXMedia *, int, class MGlxMediaList *)
	?HandleFocusChangedL@GlxMpxCommandHandler@@MAEXW4TFocusChangeType@NGlxListDefs@@HHPAVMGlxMediaList@@@Z @ 18 NONAME ; void GlxMpxCommandHandler::HandleFocusChangedL(enum NGlxListDefs::TFocusChangeType, int, int, class MGlxMediaList *)
	?HandleAttributesAvailableL@GlxMpxCommandHandler@@MAEXHABV?$RArray@VTMPXAttribute@@@@PAVMGlxMediaList@@@Z @ 19 NONAME ; void GlxMpxCommandHandler::HandleAttributesAvailableL(int, class RArray<class TMPXAttribute> const &, class MGlxMediaList *)
	?DoExecuteCommandL@GlxMpxCommandHandler@@MAEXHAAVMGlxMediaList@@AAH@Z @ 20 NONAME ; void GlxMpxCommandHandler::DoExecuteCommandL(int, class MGlxMediaList &, int &)

