EXPORTS
	??0TGlxMulAlbumsDetailsBindingSetFactory@@QAE@XZ @ 1 NONAME ; TGlxMulAlbumsDetailsBindingSetFactory::TGlxMulAlbumsDetailsBindingSetFactory(void)
	??0TGlxMulDateAndTimeDetailsBindingSetFactory@@QAE@XZ @ 2 NONAME ; TGlxMulDateAndTimeDetailsBindingSetFactory::TGlxMulDateAndTimeDetailsBindingSetFactory(void)
	??0TGlxMulDescriptionDetailsBindingSetFactory@@QAE@XZ @ 3 NONAME ; TGlxMulDescriptionDetailsBindingSetFactory::TGlxMulDescriptionDetailsBindingSetFactory(void)
	??0TGlxMulDurationDetailsBindingSetFactory@@QAE@XZ @ 4 NONAME ; TGlxMulDurationDetailsBindingSetFactory::TGlxMulDurationDetailsBindingSetFactory(void)
	??0TGlxMulFileSizeDetailsBindingSetFactory@@QAE@XZ @ 5 NONAME ; TGlxMulFileSizeDetailsBindingSetFactory::TGlxMulFileSizeDetailsBindingSetFactory(void)
	??0TGlxMulLocationDetailsBindingSetFactory@@QAE@XZ @ 6 NONAME ; TGlxMulLocationDetailsBindingSetFactory::TGlxMulLocationDetailsBindingSetFactory(void)
	??0TGlxMulResolutionDetailsBindingSetFactory@@QAE@XZ @ 7 NONAME ; TGlxMulResolutionDetailsBindingSetFactory::TGlxMulResolutionDetailsBindingSetFactory(void)
	??0TGlxMulTagsDetailsBindingSetFactory@@QAE@XZ @ 8 NONAME ; TGlxMulTagsDetailsBindingSetFactory::TGlxMulTagsDetailsBindingSetFactory(void)
	??0TGlxMulTitleDetailsBindingSetFactory@@QAE@XZ @ 9 NONAME ; TGlxMulTitleDetailsBindingSetFactory::TGlxMulTitleDetailsBindingSetFactory(void)
	??0TGlxMulUsageRightsDetailsBindingSetFactory@@QAE@XZ @ 10 NONAME ; TGlxMulUsageRightsDetailsBindingSetFactory::TGlxMulUsageRightsDetailsBindingSetFactory(void)
	??1TGlxMulAlbumsDetailsBindingSetFactory@@UAE@XZ @ 11 NONAME ; TGlxMulAlbumsDetailsBindingSetFactory::~TGlxMulAlbumsDetailsBindingSetFactory(void)
	??1TGlxMulDateAndTimeDetailsBindingSetFactory@@UAE@XZ @ 12 NONAME ; TGlxMulDateAndTimeDetailsBindingSetFactory::~TGlxMulDateAndTimeDetailsBindingSetFactory(void)
	??1TGlxMulDescriptionDetailsBindingSetFactory@@UAE@XZ @ 13 NONAME ; TGlxMulDescriptionDetailsBindingSetFactory::~TGlxMulDescriptionDetailsBindingSetFactory(void)
	??1TGlxMulDurationDetailsBindingSetFactory@@UAE@XZ @ 14 NONAME ; TGlxMulDurationDetailsBindingSetFactory::~TGlxMulDurationDetailsBindingSetFactory(void)
	??1TGlxMulFileSizeDetailsBindingSetFactory@@UAE@XZ @ 15 NONAME ; TGlxMulFileSizeDetailsBindingSetFactory::~TGlxMulFileSizeDetailsBindingSetFactory(void)
	??1TGlxMulLocationDetailsBindingSetFactory@@UAE@XZ @ 16 NONAME ; TGlxMulLocationDetailsBindingSetFactory::~TGlxMulLocationDetailsBindingSetFactory(void)
	??1TGlxMulResolutionDetailsBindingSetFactory@@UAE@XZ @ 17 NONAME ; TGlxMulResolutionDetailsBindingSetFactory::~TGlxMulResolutionDetailsBindingSetFactory(void)
	??1TGlxMulTagsDetailsBindingSetFactory@@UAE@XZ @ 18 NONAME ; TGlxMulTagsDetailsBindingSetFactory::~TGlxMulTagsDetailsBindingSetFactory(void)
	??1TGlxMulTitleDetailsBindingSetFactory@@UAE@XZ @ 19 NONAME ; TGlxMulTitleDetailsBindingSetFactory::~TGlxMulTitleDetailsBindingSetFactory(void)
	??1TGlxMulUsageRightsDetailsBindingSetFactory@@UAE@XZ @ 20 NONAME ; TGlxMulUsageRightsDetailsBindingSetFactory::~TGlxMulUsageRightsDetailsBindingSetFactory(void)
	?NewL@CGlxMetadataView@@SAPAV1@PAVMGlxMediaListFactory@@@Z @ 21 NONAME ; class CGlxMetadataView * CGlxMetadataView::NewL(class MGlxMediaListFactory *)
	?NewLC@CGlxMetadataView@@SAPAV1@PAVMGlxMediaListFactory@@@Z @ 22 NONAME ; class CGlxMetadataView * CGlxMetadataView::NewLC(class MGlxMediaListFactory *)

