EXPORTS
	??0CGlxIconManager@@IAE@AAVMGlxMediaList@@AAVMGlxVisualList@@@Z @ 1 NONAME ; CGlxIconManager::CGlxIconManager(class MGlxMediaList &, class MGlxVisualList &)
	??0CGlxMedia@@QAE@ABVTGlxMediaId@@@Z @ 2 NONAME ; CGlxMedia::CGlxMedia(class TGlxMediaId const &)
	??0CGlxMediaListCommandHandler@@QAE@PAVMGlxMediaListProvider@@@Z @ 3 NONAME ; CGlxMediaListCommandHandler::CGlxMediaListCommandHandler(class MGlxMediaListProvider *)
	??0TCommandInfo@CGlxMediaListCommandHandler@@QAE@H@Z @ 4 NONAME ; CGlxMediaListCommandHandler::TCommandInfo::TCommandInfo(int)
	??0TGlxIconManagerParams@@QAE@MMMMM@Z @ 5 NONAME ; TGlxIconManagerParams::TGlxIconManagerParams(float, float, float, float, float)
	??1CGlxCommandHandlerDrm@@UAE@XZ @ 6 NONAME ; CGlxCommandHandlerDrm::~CGlxCommandHandlerDrm(void)
	??1CGlxIconManager@@UAE@XZ @ 7 NONAME ; CGlxIconManager::~CGlxIconManager(void)
	??1CGlxMedia@@UAE@XZ @ 8 NONAME ; CGlxMedia::~CGlxMedia(void)
	??1CGlxMediaListCommandHandler@@UAE@XZ @ 9 NONAME ; CGlxMediaListCommandHandler::~CGlxMediaListCommandHandler(void)
	?ActivateL@CGlxMediaListCommandHandler@@UAEXH@Z @ 10 NONAME ; void CGlxMediaListCommandHandler::ActivateL(int)
	?AddCommandL@CGlxMediaListCommandHandler@@IAEXABUTCommandInfo@1@@Z @ 11 NONAME ; void CGlxMediaListCommandHandler::AddCommandL(struct CGlxMediaListCommandHandler::TCommandInfo const &)
	?AddIconToItemL@CGlxIconManager@@UAEXHH@Z @ 12 NONAME ; void CGlxIconManager::AddIconToItemL(int, int)
	?AddIconToItemL@CGlxIconManager@@UAEXPAVCHuiVisual@@H@Z @ 13 NONAME ; void CGlxIconManager::AddIconToItemL(class CHuiVisual *, int)
	?AllocListL@CGlxVisualListManager@@QAEPAVMGlxVisualList@@PAVMGlxMediaList@@AAVCHuiEnv@@AAVCHuiDisplay@@W4TScaleMode@CHuiImageVisual@@@Z @ 14 NONAME ; class MGlxVisualList * CGlxVisualListManager::AllocListL(class MGlxMediaList *, class CHuiEnv &, class CHuiDisplay &, enum CHuiImageVisual::TScaleMode)
	?BaseConstructL@CGlxIconManager@@QAEXXZ @ 15 NONAME ; void CGlxIconManager::BaseConstructL(void)
	?BrushPositionInVisual@CGlxIconManager@@UAEHHH@Z @ 16 NONAME ; int CGlxIconManager::BrushPositionInVisual(int, int)
	?BrushPositionInVisual@CGlxIconManager@@UAEHPAVCHuiVisual@@H@Z @ 17 NONAME ; int CGlxIconManager::BrushPositionInVisual(class CHuiVisual *, int)
	?BypassFiltersForExecute@CGlxMediaListCommandHandler@@MBEHXZ @ 18 NONAME ; int CGlxMediaListCommandHandler::BypassFiltersForExecute(void) const
	?BypassFiltersForMenu@CGlxMediaListCommandHandler@@MBEHXZ @ 19 NONAME ; int CGlxMediaListCommandHandler::BypassFiltersForMenu(void) const
	?CanShowInfoOnlineL@CGlxDRMUtility@@QAEHAAVTDesC16@@@Z @ 20 NONAME ; int CGlxDRMUtility::CanShowInfoOnlineL(class TDesC16 &)
	?CheckOpenRightsL@CGlxDRMUtility@@QAEHABVTDesC16@@H@Z @ 21 NONAME ; int CGlxDRMUtility::CheckOpenRightsL(class TDesC16 const &, int)
	?Close@CGlxDRMUtility@@QAEXXZ @ 22 NONAME ; void CGlxDRMUtility::Close(void)
	?Close@CGlxHuiUtility@@QAEXXZ @ 23 NONAME ; void CGlxHuiUtility::Close(void)
	?Close@CGlxVisualListManager@@QAEXXZ @ 24 NONAME ; void CGlxVisualListManager::Close(void)
	?CommandInfo@CGlxMediaListCommandHandler@@IAEAAUTCommandInfo@1@H@Z @ 25 NONAME ; struct CGlxMediaListCommandHandler::TCommandInfo & CGlxMediaListCommandHandler::CommandInfo(int)
	?CommandInfoIndex@CGlxMediaListCommandHandler@@ABEHH@Z @ 26 NONAME ; int CGlxMediaListCommandHandler::CommandInfoIndex(int) const
	?ConsumeRightsL@CGlxDRMUtility@@QAEHABVTDesC16@@@Z @ 27 NONAME ; int CGlxDRMUtility::ConsumeRightsL(class TDesC16 const &)
	?CreateAnimatedGifTextureL@CGlxTextureManager@@QAEPAVCHuiGifAnimationTexture@@ABVTDesC16@@@Z @ 28 NONAME ; class CHuiGifAnimationTexture * CGlxTextureManager::CreateAnimatedGifTextureL(class TDesC16 const &)
	?CreateAvkonIconTextureL@CGlxTextureManager@@QAEAAVCHuiTexture@@ABVTAknsItemID@@HVTSize@@@Z @ 29 NONAME ; class CHuiTexture & CGlxTextureManager::CreateAvkonIconTextureL(class TAknsItemID const &, int, class TSize)
	?CreateIconTextureL@CGlxTextureManager@@QAEAAVCHuiTexture@@HAAVTDesC16@@VTSize@@@Z @ 30 NONAME ; class CHuiTexture & CGlxTextureManager::CreateIconTextureL(int, class TDesC16 &, class TSize)
	?CreateTestSuiteL@@YAPAVMEUnitTest@@XZ @ 31 NONAME ; class MEUnitTest * CreateTestSuiteL(void)
	?CreateThumbnailTextureL@@YAAAVCHuiTexture@@VTGlxMediaId@@V?$TGlxId@VTGlxIdSpaceIdBase@@@@ABVTSize@@PAVMGlxTextureObserver@@AAH@Z @ 32 NONAME ; class CHuiTexture & CreateThumbnailTextureL(class TGlxMediaId, class TGlxId<class TGlxIdSpaceIdBase>, class TSize const &, class MGlxTextureObserver *, int &)
	?CreateVisualFromIconL@CGlxIconManager@@UAEXHAAVTDesC16@@@Z @ 33 NONAME ; void CGlxIconManager::CreateVisualFromIconL(int, class TDesC16 &)
	?CreateVisualFromIconL@CGlxIconManager@@UAEXHAAVTDesC16@@AAVTGlxIconManagerParams@@@Z @ 34 NONAME ; void CGlxIconManager::CreateVisualFromIconL(int, class TDesC16 &, class TGlxIconManagerParams &)
	?CreateVisualFromTextureL@CGlxIconManager@@UAEXPAVCHuiTexture@@@Z @ 35 NONAME ; void CGlxIconManager::CreateVisualFromTextureL(class CHuiTexture *)
	?CreateVisualFromTextureL@CGlxIconManager@@UAEXPAVCHuiTexture@@AAVTGlxIconManagerParams@@@Z @ 36 NONAME ; void CGlxIconManager::CreateVisualFromTextureL(class CHuiTexture *, class TGlxIconManagerParams &)
	?CreateZoomedTextureL@@YAAAVCHuiTexture@@ABVTGlxMedia@@ABVTMPXAttribute@@V?$TGlxId@VTGlxIdSpaceIdBase@@@@AAH@Z @ 37 NONAME ; class CHuiTexture & CreateZoomedTextureL(class TGlxMedia const &, class TMPXAttribute const &, class TGlxId<class TGlxIdSpaceIdBase>, int &)
	?DRMThumbnailSize@CGlxDRMUtility@@QAE?AVTSize@@AAV2@@Z @ 38 NONAME ; class TSize CGlxDRMUtility::DRMThumbnailSize(class TSize &)
	?Deactivate@CGlxMediaListCommandHandler@@UAEXXZ @ 39 NONAME ; void CGlxMediaListCommandHandler::Deactivate(void)
	?Display@CGlxHuiUtility@@QBEPAVCHuiDisplay@@XZ @ 40 NONAME ; class CHuiDisplay * CGlxHuiUtility::Display(void) const
	?DisplaySize@CGlxHuiUtility@@QBE?AVTSize@@XZ @ 41 NONAME ; class TSize CGlxHuiUtility::DisplaySize(void) const
	?DoDynInitMenuPaneL@CGlxMediaListCommandHandler@@MAEXHPAVCEikMenuPane@@@Z @ 42 NONAME ; void CGlxMediaListCommandHandler::DoDynInitMenuPaneL(int, class CEikMenuPane *)
	?DoGetRequiredAttributesL@CGlxMediaListCommandHandler@@MBEXAAV?$RArray@VTMPXAttribute@@@@H@Z @ 43 NONAME ; void CGlxMediaListCommandHandler::DoGetRequiredAttributesL(class RArray<class TMPXAttribute> &, int) const
	?DoIsDisabled@CGlxMediaListCommandHandler@@MBEHHAAVMGlxMediaList@@@Z @ 44 NONAME ; int CGlxMediaListCommandHandler::DoIsDisabled(int, class MGlxMediaList &) const
	?DynInitMenuPaneL@CGlxMediaListCommandHandler@@UAEXHPAVCEikMenuPane@@@Z @ 45 NONAME ; void CGlxMediaListCommandHandler::DynInitMenuPaneL(int, class CEikMenuPane *)
	?Env@CGlxHuiUtility@@QBEPAVCHuiEnv@@XZ @ 46 NONAME ; class CHuiEnv * CGlxHuiUtility::Env(void) const
	?ExecuteL@CGlxMediaListCommandHandler@@UAEHH@Z @ 47 NONAME ; int CGlxMediaListCommandHandler::ExecuteL(int)
	?GetRequiredAttributesL@CGlxMediaListCommandHandler@@UBEXAAV?$RArray@VTMPXAttribute@@@@HHH@Z @ 48 NONAME ; void CGlxMediaListCommandHandler::GetRequiredAttributesL(class RArray<class TMPXAttribute> &, int, int, int) const
	?GlxTextureManager@CGlxHuiUtility@@QAEAAVCGlxTextureManager@@XZ @ 49 NONAME ; class CGlxTextureManager & CGlxHuiUtility::GlxTextureManager(void)
	?HandleAttributesAvailableL@CGlxTextureManager@@QAEHABV?$TGlxId@VTGlxIdSpaceIdBase@@@@ABVTGlxMediaId@@ABV?$RArray@VTMPXAttribute@@@@PBVCGlxMedia@@@Z @ 50 NONAME ; int CGlxTextureManager::HandleAttributesAvailableL(class TGlxId<class TGlxIdSpaceIdBase> const &, class TGlxMediaId const &, class RArray<class TMPXAttribute> const &, class CGlxMedia const *)
	?HandleTvStatusChangedL@CGlxHuiUtility@@UAEXW4TTvChangeType@@@Z @ 51 NONAME ; void CGlxHuiUtility::HandleTvStatusChangedL(enum TTvChangeType)
	?HideHuiDisplayL@CGlxHuiUtility@@SAXXZ @ 52 NONAME ; void CGlxHuiUtility::HideHuiDisplayL(void)
	?InstanceL@CGlxDRMUtility@@SAPAV1@XZ @ 53 NONAME ; class CGlxDRMUtility * CGlxDRMUtility::InstanceL(void)
	?IsActivePaletteItemVisible@CGlxScreenFurniture@@QAEHH@Z @ 54 NONAME ; int CGlxScreenFurniture::IsActivePaletteItemVisible(int)
	?IsDisabledL@CGlxMediaListCommandHandler@@IBEHHAAVMGlxMediaList@@@Z @ 55 NONAME ; int CGlxMediaListCommandHandler::IsDisabledL(int, class MGlxMediaList &) const
	?IsForwardLockedL@CGlxDRMUtility@@QAEHABVTDesC16@@@Z @ 56 NONAME ; int CGlxDRMUtility::IsForwardLockedL(class TDesC16 const &)
	?IsSupported@CGlxMediaListCommandHandler@@IBEHH@Z @ 57 NONAME ; int CGlxMediaListCommandHandler::IsSupported(int) const
	?ListL@CGlxVisualListManager@@QAEPAVMGlxVisualList@@PAVMGlxMediaList@@AAVCHuiEnv@@AAVCHuiDisplay@@W4TScaleMode@CHuiImageVisual@@@Z @ 58 NONAME ; class MGlxVisualList * CGlxVisualListManager::ListL(class MGlxMediaList *, class CHuiEnv &, class CHuiDisplay &, enum CHuiImageVisual::TScaleMode)
	?ManagerL@CGlxVisualListManager@@SAPAV1@XZ @ 59 NONAME ; class CGlxVisualListManager * CGlxVisualListManager::ManagerL(void)
	?MediaList@CGlxMediaListCommandHandler@@IAEAAVMGlxMediaList@@XZ @ 60 NONAME ; class MGlxMediaList & CGlxMediaListCommandHandler::MediaList(void)
	?MediaList@CGlxMediaListCommandHandler@@IBEABVMGlxMediaList@@XZ @ 61 NONAME ; class MGlxMediaList const & CGlxMediaListCommandHandler::MediaList(void) const
	?NewL@CGlxCommandHandlerDrm@@SAPAV1@PAVMGlxMediaListProvider@@H@Z @ 62 NONAME ; class CGlxCommandHandlerDrm * CGlxCommandHandlerDrm::NewL(class MGlxMediaListProvider *, int)
	?NewL@CGlxTextureManager@@SAPAV1@AAVCHuiTextureManager@@@Z @ 63 NONAME ; class CGlxTextureManager * CGlxTextureManager::NewL(class CHuiTextureManager &)
	?NewLC@CGlxTextureManager@@SAPAV1@AAVCHuiTextureManager@@@Z @ 64 NONAME ; class CGlxTextureManager * CGlxTextureManager::NewLC(class CHuiTextureManager &)
	?NotifyDisplayRefreshStarted@CGlxHuiUtility@@UAEXAAVCHuiDisplay@@@Z @ 65 NONAME ; void CGlxHuiUtility::NotifyDisplayRefreshStarted(class CHuiDisplay &)
	?OfferKeyEventL@CGlxMediaListCommandHandler@@UAE?AW4TKeyResponse@@ABUTKeyEvent@@W4TEventCode@@@Z @ 66 NONAME ; enum TKeyResponse CGlxMediaListCommandHandler::OfferKeyEventL(struct TKeyEvent const &, enum TEventCode)
	?PreDynInitMenuPaneL@CGlxMediaListCommandHandler@@UAEXH@Z @ 67 NONAME ; void CGlxMediaListCommandHandler::PreDynInitMenuPaneL(int)
	?ReleaseList@CGlxVisualListManager@@QAEXPAVMGlxVisualList@@@Z @ 68 NONAME ; void CGlxVisualListManager::ReleaseList(class MGlxVisualList *)
	?RemoveFromItem@CGlxIconManager@@UAEXHH@Z @ 69 NONAME ; void CGlxIconManager::RemoveFromItem(int, int)
	?RemoveFromItem@CGlxIconManager@@UAEXPAVCHuiVisual@@H@Z @ 70 NONAME ; void CGlxIconManager::RemoveFromItem(class CHuiVisual *, int)
	?RemoveTexture@CGlxTextureManager@@QAEXH@Z @ 71 NONAME ; void CGlxTextureManager::RemoveTexture(int)
	?RetrieveL@GlxAttributeRetriever@@SAHABVMGlxFetchContext@@AAVMGlxMediaList@@H@Z @ 72 NONAME ; int GlxAttributeRetriever::RetrieveL(class MGlxFetchContext const &, class MGlxMediaList &, int)
	?ScreenFurniture@CGlxHuiUtility@@QAEPAVCGlxScreenFurniture@@XZ @ 73 NONAME ; class CGlxScreenFurniture * CGlxHuiUtility::ScreenFurniture(void)
	?SelectionLength@CGlxMediaListCommandHandler@@IBEHXZ @ 74 NONAME ; int CGlxMediaListCommandHandler::SelectionLength(void) const
	?SetPreferredTextureSizeL@CGlxTextureManager@@QAEHABVMHuiSegmentedTexture@@AAVTSize@@@Z @ 75 NONAME ; int CGlxTextureManager::SetPreferredTextureSizeL(class MHuiSegmentedTexture const &, class TSize &)
	?SetViewNavigationDirection@CGlxHuiUtility@@QAEXW4TGlxNavigationDirection@@@Z @ 76 NONAME ; void CGlxHuiUtility::SetViewNavigationDirection(enum TGlxNavigationDirection)
	?ShowHuiDisplayL@CGlxHuiUtility@@SAXXZ @ 77 NONAME ; void CGlxHuiUtility::ShowHuiDisplayL(void)
	?ShowInfoOnlineL@CGlxDRMUtility@@QAEXAAVTDesC16@@@Z @ 78 NONAME ; void CGlxDRMUtility::ShowInfoOnlineL(class TDesC16 &)
	?ShowRightsInfoL@CGlxDRMUtility@@QAEXABVTDesC16@@@Z @ 79 NONAME ; void CGlxDRMUtility::ShowRightsInfoL(class TDesC16 const &)
	?TextStyleIdL@CGlxHuiUtility@@QAEHHH@Z @ 80 NONAME ; int CGlxHuiUtility::TextStyleIdL(int, int)
	?UploadFlatColourToTextureL@CGlxHuiUtility@@SAXVTRgb@@PAVCHuiTexture@@@Z @ 81 NONAME ; void CGlxHuiUtility::UploadFlatColourToTextureL(class TRgb, class CHuiTexture *)
	?UtilityL@CGlxHuiUtility@@SAPAV1@XZ @ 82 NONAME ; class CGlxHuiUtility * CGlxHuiUtility::UtilityL(void)
	?ViewNavigationDirection@CGlxHuiUtility@@QAE?AW4TGlxNavigationDirection@@XZ @ 83 NONAME ; enum TGlxNavigationDirection CGlxHuiUtility::ViewNavigationDirection(void)
	?ViewingState@CGlxMediaListCommandHandler@@IBE?AW4TViewingState@TCommandInfo@1@XZ @ 84 NONAME ; enum CGlxMediaListCommandHandler::TCommandInfo::TViewingState CGlxMediaListCommandHandler::ViewingState(void) const

