EXPORTS
	_ZN15CGlxIconManager14AddIconToItemLEP10CAlfVisuali @ 1 NONAME
	_ZN15CGlxIconManager14AddIconToItemLEii @ 2 NONAME
	_ZN15CGlxIconManager14BaseConstructLEv @ 3 NONAME
	_ZN15CGlxIconManager14RemoveFromItemEP10CAlfVisuali @ 4 NONAME
	_ZN15CGlxIconManager14RemoveFromItemEii @ 5 NONAME
	_ZN15CGlxIconManager21BrushPositionInVisualEP10CAlfVisuali @ 6 NONAME
	_ZN15CGlxIconManager21BrushPositionInVisualEii @ 7 NONAME
	_ZN15CGlxIconManager21CreateVisualFromIconLEiR7TDesC16 @ 8 NONAME
	_ZN15CGlxIconManager21CreateVisualFromIconLEiR7TDesC16R21TGlxIconManagerParams @ 9 NONAME
	_ZN15CGlxIconManager24CreateVisualFromTextureLER11CAlfTexture @ 10 NONAME
	_ZN15CGlxIconManager24CreateVisualFromTextureLER11CAlfTextureR21TGlxIconManagerParams @ 11 NONAME
	_ZN15CGlxIconManagerC1ER13MGlxMediaListR14MGlxVisualList @ 12 NONAME
	_ZN15CGlxIconManagerC2ER13MGlxMediaListR14MGlxVisualList @ 13 NONAME
	_ZN15CGlxIconManagerD0Ev @ 14 NONAME
	_ZN15CGlxIconManagerD1Ev @ 15 NONAME
	_ZN15CGlxIconManagerD2Ev @ 16 NONAME
	_ZN16CGlxVisualObject12SetScaleModeEN15CAlfImageVisual10TScaleModeE @ 17 NONAME
	_ZN20CGlxVideoIconManager4NewLER13MGlxMediaListR14MGlxVisualList @ 18 NONAME
	_ZN21CGlxBorderIconManager23SetThumbnailBorderColorEv @ 19 NONAME
	_ZN21CGlxBorderIconManager4NewLER13MGlxMediaListR14MGlxVisualList @ 20 NONAME
	_ZN21CGlxVisualIconManager4NewLER13MGlxMediaListR14MGlxVisualList @ 21 NONAME
	_ZN21CGlxVisualIconManagerD0Ev @ 22 NONAME
	_ZN21CGlxVisualIconManagerD1Ev @ 23 NONAME
	_ZN21CGlxVisualIconManagerD2Ev @ 24 NONAME
	_ZN21CGlxVisualListManager10AllocListLER13MGlxMediaListR7CAlfEnvR11CAlfDisplayN15CAlfImageVisual10TScaleModeE @ 25 NONAME
	_ZN21CGlxVisualListManager11ReleaseListEP14MGlxVisualList @ 26 NONAME
	_ZN21CGlxVisualListManager5CloseEv @ 27 NONAME
	_ZN21CGlxVisualListManager5ListLER13MGlxMediaListR7CAlfEnvR11CAlfDisplayN15CAlfImageVisual10TScaleModeE @ 28 NONAME
	_ZN21CGlxVisualListManager8ManagerLEv @ 29 NONAME
	_ZN21TGlxIconManagerParamsC1Efffff @ 30 NONAME
	_ZN21TGlxIconManagerParamsC2Efffff @ 31 NONAME
	_ZTI15CGlxIconManager @ 32 NONAME ; #<TI>#
	_ZTI16CGlxVisualObject @ 33 NONAME ; #<TI>#
	_ZTI21CGlxVisualListControl @ 34 NONAME ; #<TI>#
	_ZTI21CGlxVisualListManager @ 35 NONAME ; #<TI>#
	_ZTI21TGlxDefaultIdProviderI6TGlxIdI21TGlxIdViewContextBaseEE @ 36 NONAME ; #<TI>#
	_ZTV15CGlxIconManager @ 37 NONAME ; #<VT>#
	_ZTV16CGlxVisualObject @ 38 NONAME ; #<VT>#
	_ZTV21CGlxVisualListControl @ 39 NONAME ; #<VT>#
	_ZTV21CGlxVisualListManager @ 40 NONAME ; #<VT>#
	_ZTV21TGlxDefaultIdProviderI6TGlxIdI21TGlxIdViewContextBaseEE @ 41 NONAME ; #<VT>#

