EXPORTS
	?MediaList@CGlxMediaListCommandHandler@@IBEABVMGlxMediaList@@XZ @ 1 NONAME ; class MGlxMediaList const & CGlxMediaListCommandHandler::MediaList(void) const
	?ViewNavigationDirection@CGlxUiUtility@@QAE?AW4TGlxNavigationDirection@@XZ @ 2 NONAME ; enum TGlxNavigationDirection CGlxUiUtility::ViewNavigationDirection(void)
	?InstanceL@CGlxDRMUtility@@SAPAV1@XZ @ 3 NONAME ; class CGlxDRMUtility * CGlxDRMUtility::InstanceL(void)
	??1CGlxCommandHandlerMoreInfo@@UAE@XZ @ 4 NONAME ; CGlxCommandHandlerMoreInfo::~CGlxCommandHandlerMoreInfo(void)
	?CreateIconTextureL@CGlxTextureManager@@QAEAAVCAlfTexture@@HAAVTDesC16@@VTSize@@@Z @ 5 NONAME ; class CAlfTexture & CGlxTextureManager::CreateIconTextureL(int, class TDesC16 &, class TSize)
	??1CGlxMediaListCommandHandler@@UAE@XZ @ 6 NONAME ; CGlxMediaListCommandHandler::~CGlxMediaListCommandHandler(void)
	?DRMThumbnailSize@CGlxDRMUtility@@QAE?AVTSize@@AAV2@@Z @ 7 NONAME ; class TSize CGlxDRMUtility::DRMThumbnailSize(class TSize &)
	?ItemRightsValidityCheckL@CGlxDRMUtility@@QAEHABVTDesC16@@H@Z @ 8 NONAME ; int CGlxDRMUtility::ItemRightsValidityCheckL(class TDesC16 const &, int)
	?SelectionLength@CGlxMediaListCommandHandler@@IBEHXZ @ 9 NONAME ; int CGlxMediaListCommandHandler::SelectionLength(void) const
	?CreateThumbnailTextureL@@YAAAVCAlfTexture@@VTGlxMediaId@@V?$TGlxId@VTGlxIdSpaceIdBase@@@@ABVTSize@@PAVMGlxTextureObserver@@AAH@Z @ 10 NONAME ; class CAlfTexture & CreateThumbnailTextureL(class TGlxMediaId, class TGlxId<class TGlxIdSpaceIdBase>, class TSize const &, class MGlxTextureObserver *, int &)
	?CommandInfo@CGlxMediaListCommandHandler@@IAEAAUTCommandInfo@1@H@Z @ 11 NONAME ; struct CGlxMediaListCommandHandler::TCommandInfo & CGlxMediaListCommandHandler::CommandInfo(int)
	?GlxTextureManager@CGlxUiUtility@@QAEAAVCGlxTextureManager@@XZ @ 12 NONAME ; class CGlxTextureManager & CGlxUiUtility::GlxTextureManager(void)
	?DynInitMenuPaneL@CGlxMediaListCommandHandler@@UAEXHPAVCEikMenuPane@@H@Z @ 13 NONAME ; void CGlxMediaListCommandHandler::DynInitMenuPaneL(int, class CEikMenuPane *, int)
	?Deactivate@CGlxMediaListCommandHandler@@UAEXXZ @ 14 NONAME ; void CGlxMediaListCommandHandler::Deactivate(void)
	?CreateTestSuiteL@@YAPAVMEUnitTest@@XZ @ 15 NONAME ; class MEUnitTest * CreateTestSuiteL(void)
	?CanShowInfoOnlineL@CGlxDRMUtility@@QAEHABVTDesC16@@@Z @ 16 NONAME ; int CGlxDRMUtility::CanShowInfoOnlineL(class TDesC16 const &)
	?Close@CGlxDRMUtility@@QAEXXZ @ 17 NONAME ; void CGlxDRMUtility::Close(void)
	?ShowAlfDisplayL@CGlxUiUtility@@SAXXZ @ 18 NONAME ; void CGlxUiUtility::ShowAlfDisplayL(void)
	?HandleActionL@CGlxUiUtility@@UAEXABVTAlfActionCommand@@@Z @ 19 NONAME ; void CGlxUiUtility::HandleActionL(class TAlfActionCommand const &)
	??0TCommandInfo@CGlxMediaListCommandHandler@@QAE@H@Z @ 20 NONAME ; CGlxMediaListCommandHandler::TCommandInfo::TCommandInfo(int)
	?BypassFiltersForExecute@CGlxMediaListCommandHandler@@MBEHXZ @ 21 NONAME ; int CGlxMediaListCommandHandler::BypassFiltersForExecute(void) const
	?ConsumeRightsL@CGlxDRMUtility@@QAEHABVTDesC16@@@Z @ 22 NONAME ; int CGlxDRMUtility::ConsumeRightsL(class TDesC16 const &)
	?DoIsDisabled@CGlxMediaListCommandHandler@@MBEHHAAVMGlxMediaList@@@Z @ 23 NONAME ; int CGlxMediaListCommandHandler::DoIsDisabled(int, class MGlxMediaList &) const
	?CreateAvkonIconTextureL@CGlxTextureManager@@QAEAAVCAlfTexture@@ABVTAknsItemID@@HVTSize@@@Z @ 24 NONAME ; class CAlfTexture & CGlxTextureManager::CreateAvkonIconTextureL(class TAknsItemID const &, int, class TSize)
	??0CGlxMedia@@QAE@ABVTGlxMediaId@@@Z @ 25 NONAME ; CGlxMedia::CGlxMedia(class TGlxMediaId const &)
	?HandleTvStatusChangedL@CGlxUiUtility@@UAEXW4TTvChangeType@@@Z @ 26 NONAME ; void CGlxUiUtility::HandleTvStatusChangedL(enum TTvChangeType)
	?AddCommandL@CGlxMediaListCommandHandler@@IAEXABUTCommandInfo@1@@Z @ 27 NONAME ; void CGlxMediaListCommandHandler::AddCommandL(struct CGlxMediaListCommandHandler::TCommandInfo const &)
	?MediaList@CGlxMediaListCommandHandler@@IAEAAVMGlxMediaList@@XZ @ 28 NONAME ; class MGlxMediaList & CGlxMediaListCommandHandler::MediaList(void)
	?Close@CGlxUiUtility@@QAEXXZ @ 29 NONAME ; void CGlxUiUtility::Close(void)
	?NewL@CGlxTextureManager@@SAPAV1@AAVCAlfTextureManager@@@Z @ 30 NONAME ; class CGlxTextureManager * CGlxTextureManager::NewL(class CAlfTextureManager &)
	?IsDisabledL@CGlxMediaListCommandHandler@@IBEHHAAVMGlxMediaList@@@Z @ 31 NONAME ; int CGlxMediaListCommandHandler::IsDisabledL(int, class MGlxMediaList &) const
	?CreateZoomedTextureL@@YAAAVCAlfTexture@@ABVTGlxMedia@@ABVTMPXAttribute@@V?$TGlxId@VTGlxIdSpaceIdBase@@@@AAH@Z @ 32 NONAME ; class CAlfTexture & CreateZoomedTextureL(class TGlxMedia const &, class TMPXAttribute const &, class TGlxId<class TGlxIdSpaceIdBase>, int &)
	??1CGlxMedia@@UAE@XZ @ 33 NONAME ; CGlxMedia::~CGlxMedia(void)
	?NewL@CGlxCommandHandlerMoreInfo@@SAPAV1@PAVMGlxMediaListProvider@@H@Z @ 34 NONAME ; class CGlxCommandHandlerMoreInfo * CGlxCommandHandlerMoreInfo::NewL(class MGlxMediaListProvider *, int)
	?HandleSkinChanged@CGlxTextureManager@@UAEXXZ @ 35 NONAME ; void CGlxTextureManager::HandleSkinChanged(void)
	?UtilityL@CGlxUiUtility@@SAPAV1@XZ @ 36 NONAME ; class CGlxUiUtility * CGlxUiUtility::UtilityL(void)
	?HideAlfDisplayL@CGlxUiUtility@@SAXXZ @ 37 NONAME ; void CGlxUiUtility::HideAlfDisplayL(void)
	?ExecuteL@CGlxMediaListCommandHandler@@UAEHH@Z @ 38 NONAME ; int CGlxMediaListCommandHandler::ExecuteL(int)
	?DisplaySize@CGlxUiUtility@@QBE?AVTSize@@XZ @ 39 NONAME ; class TSize CGlxUiUtility::DisplaySize(void) const
	?ShowRightsInfoL@CGlxDRMUtility@@QAEXABVTDesC16@@@Z @ 40 NONAME ; void CGlxDRMUtility::ShowRightsInfoL(class TDesC16 const &)
	?IsSupported@CGlxMediaListCommandHandler@@IBEHH@Z @ 41 NONAME ; int CGlxMediaListCommandHandler::IsSupported(int) const
	?GetRequiredAttributesL@CGlxMediaListCommandHandler@@UBEXAAV?$RArray@VTMPXAttribute@@@@HHH@Z @ 42 NONAME ; void CGlxMediaListCommandHandler::GetRequiredAttributesL(class RArray<class TMPXAttribute> &, int, int, int) const
	?DoActivateL@CGlxMediaListCommandHandler@@MAEXH@Z @ 43 NONAME ; void CGlxMediaListCommandHandler::DoActivateL(int)
	?Env@CGlxUiUtility@@QAEPAVCAlfEnv@@XZ @ 44 NONAME ; class CAlfEnv * CGlxUiUtility::Env(void)
	?RemoveTexture@CGlxTextureManager@@QAEXABVCAlfTexture@@@Z @ 45 NONAME ; void CGlxTextureManager::RemoveTexture(class CAlfTexture const &)
	?PreDynInitMenuPaneL@CGlxMediaListCommandHandler@@UAEXH@Z @ 46 NONAME ; void CGlxMediaListCommandHandler::PreDynInitMenuPaneL(int)
	?RetrieveL@GlxAttributeRetriever@@SAHABVMGlxFetchContext@@AAVMGlxMediaList@@H@Z @ 47 NONAME ; int GlxAttributeRetriever::RetrieveL(class MGlxFetchContext const &, class MGlxMediaList &, int)
	?DoGetRequiredAttributesL@CGlxMediaListCommandHandler@@MBEXAAV?$RArray@VTMPXAttribute@@@@H@Z @ 48 NONAME ; void CGlxMediaListCommandHandler::DoGetRequiredAttributesL(class RArray<class TMPXAttribute> &, int) const
	?TextStyleIdL@CGlxUiUtility@@QAEHHH@Z @ 49 NONAME ; int CGlxUiUtility::TextStyleIdL(int, int)
	?BypassFiltersForMenu@CGlxMediaListCommandHandler@@MBEHXZ @ 50 NONAME ; int CGlxMediaListCommandHandler::BypassFiltersForMenu(void) const
	?ViewingState@CGlxMediaListCommandHandler@@IBE?AW4TViewingState@TCommandInfo@1@XZ @ 51 NONAME ; enum CGlxMediaListCommandHandler::TCommandInfo::TViewingState CGlxMediaListCommandHandler::ViewingState(void) const
	?CommandInfoIndex@CGlxMediaListCommandHandler@@ABEHH@Z @ 52 NONAME ; int CGlxMediaListCommandHandler::CommandInfoIndex(int) const
	?IsForwardLockedL@CGlxDRMUtility@@QAEHABVTDesC16@@@Z @ 53 NONAME ; int CGlxDRMUtility::IsForwardLockedL(class TDesC16 const &)
	?OfferKeyEventL@CGlxMediaListCommandHandler@@UAE?AW4TKeyResponse@@ABUTKeyEvent@@W4TEventCode@@@Z @ 54 NONAME ; enum TKeyResponse CGlxMediaListCommandHandler::OfferKeyEventL(struct TKeyEvent const &, enum TEventCode)
	?Display@CGlxUiUtility@@QBEPAVCAlfDisplay@@XZ @ 55 NONAME ; class CAlfDisplay * CGlxUiUtility::Display(void) const
	??0CGlxMediaListCommandHandler@@QAE@PAVMGlxMediaListProvider@@H@Z @ 56 NONAME ; CGlxMediaListCommandHandler::CGlxMediaListCommandHandler(class MGlxMediaListProvider *, int)
	?DoDynInitMenuPaneL@CGlxMediaListCommandHandler@@MAEXHPAVCEikMenuPane@@@Z @ 57 NONAME ; void CGlxMediaListCommandHandler::DoDynInitMenuPaneL(int, class CEikMenuPane *)
	?SetViewNavigationDirection@CGlxUiUtility@@QAEXW4TGlxNavigationDirection@@@Z @ 58 NONAME ; void CGlxUiUtility::SetViewNavigationDirection(enum TGlxNavigationDirection)
	?ShowInfoOnlineL@CGlxDRMUtility@@QAEXABVTDesC16@@@Z @ 59 NONAME ; void CGlxDRMUtility::ShowInfoOnlineL(class TDesC16 const &)
	?ScreenFurniture@CGlxUiUtility@@QAEPAVCGlxScreenFurniture@@XZ @ 60 NONAME ; class CGlxScreenFurniture * CGlxUiUtility::ScreenFurniture(void)

