EXPORTS
	_ZN15TGlxHelpContextC1Ev @ 1 NONAME
	_ZN15TGlxHelpContextC2Ev @ 2 NONAME
	_ZN20CGlxMediaListAdaptorC1EPK13MGlxMediaListi @ 3 NONAME
	_ZN20CGlxMediaListAdaptorC2EPK13MGlxMediaListi @ 4 NONAME
	_ZN22CGlxCommandHandlerBack22NewBackCommandHandlerLEv @ 5 NONAME
	_ZN22CGlxCommandHandlerBack30NewPreviousViewCommandHandlerLEP21MGlxMediaListProvider @ 6 NONAME
	_ZN22CGlxCommandHandlerBack39NewContainerPreviousViewCommandHandlerLEP21MGlxMediaListProvideri @ 7 NONAME
	_ZN22CGlxCommandHandlerBackD0Ev @ 8 NONAME
	_ZN22CGlxCommandHandlerBackD1Ev @ 9 NONAME
	_ZN22CGlxCommandHandlerBackD2Ev @ 10 NONAME
	_ZN22CGlxCommandHandlerHelp4NewLE15TGlxHelpContext @ 11 NONAME
	_ZN22CGlxCommandHandlerHelpD0Ev @ 12 NONAME
	_ZN22CGlxCommandHandlerHelpD1Ev @ 13 NONAME
	_ZN22CGlxCommandHandlerHelpD2Ev @ 14 NONAME
	_ZN22CGlxCommandHandlerOpen4NewLEP21MGlxMediaListProvider @ 15 NONAME
	_ZN22CGlxCommandHandlerOpenD0Ev @ 16 NONAME
	_ZN22CGlxCommandHandlerOpenD1Ev @ 17 NONAME
	_ZN22CGlxCommandHandlerOpenD2Ev @ 18 NONAME
	_ZN22CGlxCommandHandlerSave4NewLEv @ 19 NONAME
	_ZN22CGlxCommandHandlerSaveD0Ev @ 20 NONAME
	_ZN22CGlxCommandHandlerSaveD1Ev @ 21 NONAME
	_ZN22CGlxCommandHandlerSaveD2Ev @ 22 NONAME
	_ZN22CGlxCommandHandlerSend4NewLEP21MGlxMediaListProvideriRK7TDesC16 @ 23 NONAME
	_ZN22CGlxCommandHandlerSendD0Ev @ 24 NONAME
	_ZN22CGlxCommandHandlerSendD1Ev @ 25 NONAME
	_ZN22CGlxCommandHandlerSendD2Ev @ 26 NONAME
	_ZN23CGlxMediaSelectionPopup9ExecuteLDER18CMPXCollectionPathRiiiP9CMPXMedia @ 27 NONAME
	_ZN23CGlxMediaSelectionPopupC1Ev @ 28 NONAME
	_ZN23CGlxMediaSelectionPopupC2Ev @ 29 NONAME
	_ZN24CGlxCommandHandlerDelete4NewLEP21MGlxMediaListProvideriiRK7TDesC16 @ 30 NONAME
	_ZN24CGlxCommandHandlerDeleteD0Ev @ 31 NONAME
	_ZN24CGlxCommandHandlerDeleteD1Ev @ 32 NONAME
	_ZN24CGlxCommandHandlerDeleteD2Ev @ 33 NONAME
	_ZN24CGlxCommandHandlerHideUi4NewLEv @ 34 NONAME
	_ZN24CGlxCommandHandlerRename4NewLEP21MGlxMediaListProvideriRK7TDesC16 @ 35 NONAME
	_ZN24CGlxCommandHandlerRenameD0Ev @ 36 NONAME
	_ZN24CGlxCommandHandlerRenameD1Ev @ 37 NONAME
	_ZN24CGlxCommandHandlerRenameD2Ev @ 38 NONAME
	_ZN24CGlxCommandHandlerRotate4NewLEP21MGlxMediaListProviderP15MGlxLayoutOwneri @ 39 NONAME
	_ZN24CGlxCommandHandlerUpload4NewLEP21MGlxMediaListProvideri @ 40 NONAME
	_ZN24CGlxCommandHandlerUploadD0Ev @ 41 NONAME
	_ZN24CGlxCommandHandlerUploadD1Ev @ 42 NONAME
	_ZN24CGlxCommandHandlerUploadD2Ev @ 43 NONAME
	_ZN25CGlxCommandHandlerAiwEdit4NewLEP21MGlxMediaListProvider @ 44 NONAME
	_ZN25CGlxCommandHandlerAiwEditD0Ev @ 45 NONAME
	_ZN25CGlxCommandHandlerAiwEditD1Ev @ 46 NONAME
	_ZN25CGlxCommandHandlerAiwEditD2Ev @ 47 NONAME
	_ZN25CGlxCommandHandlerDetails4NewLEP21MGlxMediaListProviderRK7TDesC16 @ 48 NONAME
	_ZN25CGlxCommandHandlerDetailsD0Ev @ 49 NONAME
	_ZN25CGlxCommandHandlerDetailsD1Ev @ 50 NONAME
	_ZN25CGlxCommandHandlerDetailsD2Ev @ 51 NONAME
	_ZN26CGlxCommandHandlerDownload4NewLEv @ 52 NONAME
	_ZN26CGlxCommandHandlerDownloadD0Ev @ 53 NONAME
	_ZN26CGlxCommandHandlerDownloadD1Ev @ 54 NONAME
	_ZN26CGlxCommandHandlerDownloadD2Ev @ 55 NONAME
	_ZN26CGlxCommandHandlerNewMedia16HandleItemAddedLEiiP13MGlxMediaList @ 56 NONAME
	_ZN26CGlxCommandHandlerNewMedia4NewLEP21MGlxMediaListProviderRK7TDesC16 @ 57 NONAME
	_ZN26CGlxCommandHandlerNewMedia9ExecuteLDER11TGlxMediaId @ 58 NONAME
	_ZN26CGlxCommandHandlerNewMediaD0Ev @ 59 NONAME
	_ZN26CGlxCommandHandlerNewMediaD1Ev @ 60 NONAME
	_ZN26CGlxCommandHandlerNewMediaD2Ev @ 61 NONAME
	_ZN27CGlxCommandHandlerAiwAssign4NewLEP21MGlxMediaListProvideriRK7TDesC16 @ 62 NONAME
	_ZN27CGlxCommandHandlerSlideshow4NewLEP21MGlxMediaListProvideriiRK7TDesC16 @ 63 NONAME
	_ZN27CGlxCommandHandlerSlideshowD0Ev @ 64 NONAME
	_ZN27CGlxCommandHandlerSlideshowD1Ev @ 65 NONAME
	_ZN27CGlxCommandHandlerSlideshowD2Ev @ 66 NONAME
	_ZN27CGlxCommandHandlerSortOrder4NewLEP21MGlxMediaListProviderm @ 67 NONAME
	_ZN27CGlxCommandHandlerSortOrderD0Ev @ 68 NONAME
	_ZN27CGlxCommandHandlerSortOrderD1Ev @ 69 NONAME
	_ZN27CGlxCommandHandlerSortOrderD2Ev @ 70 NONAME
	_ZN28CGlxCommandHandlerAiwShowMap4NewLEP21MGlxMediaListProvideriRK7TDesC16 @ 71 NONAME
	_ZN28CGlxCommandHandlerRemoveFrom14SetContainerIdE11TGlxMediaId @ 72 NONAME
	_ZN28CGlxCommandHandlerRemoveFrom4NewLEP21MGlxMediaListProvider19TMPXGeneralCategoryRK7TDesC16 @ 73 NONAME
	_ZN28CGlxCommandHandlerRemoveFromD0Ev @ 74 NONAME
	_ZN28CGlxCommandHandlerRemoveFromD1Ev @ 75 NONAME
	_ZN28CGlxCommandHandlerRemoveFromD2Ev @ 76 NONAME
	_ZN29CGlxCommandHandlerCopyAndMove4NewLEP21MGlxMediaListProvideriRK7TDesC16 @ 77 NONAME
	_ZN29CGlxCommandHandlerCopyAndMoveD0Ev @ 78 NONAME
	_ZN29CGlxCommandHandlerCopyAndMoveD1Ev @ 79 NONAME
	_ZN29CGlxCommandHandlerCopyAndMoveD2Ev @ 80 NONAME
	_ZN31CGlxCommandHandlerAiwShareOnOvi4NewLEP21MGlxMediaListProvideriRK7TDesC16 @ 81 NONAME
	_ZN31CGlxCommandHandlerVideoPlayback4NewLEP21MGlxMediaListProvider @ 82 NONAME
	_ZN31CGlxCommandHandlerVideoPlaybackD0Ev @ 83 NONAME
	_ZN31CGlxCommandHandlerVideoPlaybackD1Ev @ 84 NONAME
	_ZN31CGlxCommandHandlerVideoPlaybackD2Ev @ 85 NONAME
	_ZN32CGlxCommandHandlerAddToContainer26NewAddToFavCommandHandlerLEP21MGlxMediaListProvideriRK7TDesC16 @ 86 NONAME
	_ZN32CGlxCommandHandlerAddToContainer26NewAddToTagCommandHandlerLEP21MGlxMediaListProvideriRK7TDesC16 @ 87 NONAME
	_ZN32CGlxCommandHandlerAddToContainer28NewAddToAlbumCommandHandlerLEP21MGlxMediaListProvideriRK7TDesC16 @ 88 NONAME
	_ZN32CGlxCommandHandlerAddToContainer4NewLEP21MGlxMediaListProvideriiRK7TDesC16 @ 89 NONAME
	_ZN32CGlxCommandHandlerAddToContainerD0Ev @ 90 NONAME
	_ZN32CGlxCommandHandlerAddToContainerD1Ev @ 91 NONAME
	_ZN32CGlxCommandHandlerAddToContainerD2Ev @ 92 NONAME
	_ZN33CGlxCommandHandlerAiwPrintPreview4NewLEP21MGlxMediaListProvideriRK7TDesC16 @ 93 NONAME
	_ZN35CGlxCommandHandlerAiwShowMapHardKey4NewLEP21MGlxMediaListProvideri @ 94 NONAME
	_ZN38CGlxCommandHandlerFilterImagesOrVideos4NewLEP21MGlxMediaListProvider @ 95 NONAME
	_ZN38CGlxCommandHandlerFilterImagesOrVideosD0Ev @ 96 NONAME
	_ZN38CGlxCommandHandlerFilterImagesOrVideosD1Ev @ 97 NONAME
	_ZN38CGlxCommandHandlerFilterImagesOrVideosD2Ev @ 98 NONAME
	_ZNK20CGlxMediaListAdaptor9MdcaCountEv @ 99 NONAME
	_ZNK20CGlxMediaListAdaptor9MdcaPointEi @ 100 NONAME
	_ZNK26CGlxCommandHandlerNewMedia23BypassFiltersForExecuteEv @ 101 NONAME
	_ZNK26CGlxCommandHandlerNewMedia8OkToExitEv @ 102 NONAME
	_ZThn48_N26CGlxCommandHandlerNewMedia16HandleItemAddedLEiiP13MGlxMediaList @ 103 NONAME
	_ZThn4_NK20CGlxMediaListAdaptor9MdcaCountEv @ 104 NONAME
	_ZThn4_NK20CGlxMediaListAdaptor9MdcaPointEi @ 105 NONAME

