EXPORTS
	??0CGlxLayout@@QAE@XZ @ 1 NONAME ; CGlxLayout::CGlxLayout(void)
	??0TGlxFollowFocusLayout@@QAE@XZ @ 2 NONAME ; TGlxFollowFocusLayout::TGlxFollowFocusLayout(void)
	??0TGlxLayout@@QAE@XZ @ 3 NONAME ; TGlxLayout::TGlxLayout(void)
	??0TGlxLayoutHelper@@QAE@AAVCAlfVisual@@@Z @ 4 NONAME ; TGlxLayoutHelper::TGlxLayoutHelper(class CAlfVisual &)
	??0TGlxLayoutInfoResetter@@QAE@PAVCAlfVisual@@@Z @ 5 NONAME ; TGlxLayoutInfoResetter::TGlxLayoutInfoResetter(class CAlfVisual *)
	??0TGlxLayoutInfoResetter@@QAE@XZ @ 6 NONAME ; TGlxLayoutInfoResetter::TGlxLayoutInfoResetter(void)
	??0TGlxLayoutSplitter@@QAE@XZ @ 7 NONAME ; TGlxLayoutSplitter::TGlxLayoutSplitter(void)
	??0TGlxRotationLayout@@QAE@XZ @ 8 NONAME ; TGlxRotationLayout::TGlxRotationLayout(void)
	??0TGlxSetValueLayout@@QAE@XZ @ 9 NONAME ; TGlxSetValueLayout::TGlxSetValueLayout(void)
	??1CGlxLayout@@UAE@XZ @ 10 NONAME ; CGlxLayout::~CGlxLayout(void)
	??1TGlxFollowFocusLayout@@UAE@XZ @ 11 NONAME ; TGlxFollowFocusLayout::~TGlxFollowFocusLayout(void)
	??1TGlxLayout@@UAE@XZ @ 12 NONAME ; TGlxLayout::~TGlxLayout(void)
	??1TGlxLayoutHelper@@QAE@XZ @ 13 NONAME ; TGlxLayoutHelper::~TGlxLayoutHelper(void)
	??1TGlxLayoutSplitter@@UAE@XZ @ 14 NONAME ; TGlxLayoutSplitter::~TGlxLayoutSplitter(void)
	??1TGlxRotationLayout@@UAE@XZ @ 15 NONAME ; TGlxRotationLayout::~TGlxRotationLayout(void)
	??1TGlxSetValueLayout@@UAE@XZ @ 16 NONAME ; TGlxSetValueLayout::~TGlxSetValueLayout(void)
	?DoSetLayoutValues@CGlxLayout@@MAEXAAVTGlxLayoutInfo@@@Z @ 17 NONAME ; void CGlxLayout::DoSetLayoutValues(class TGlxLayoutInfo &)
	?DoSetLayoutValues@TGlxLayout@@MAEXAAVTGlxLayoutInfo@@@Z @ 18 NONAME ; void TGlxLayout::DoSetLayoutValues(class TGlxLayoutInfo &)
	?GetUpdatedLayoutInfo@TGlxLayoutHelper@@QAEAAVTGlxLayoutInfo@@XZ @ 19 NONAME ; class TGlxLayoutInfo & TGlxLayoutHelper::GetUpdatedLayoutInfo(void)
	?GetUpdatedVisualSize@TGlxLayoutHelper@@QAE?AVTSize@@XZ @ 20 NONAME ; class TSize TGlxLayoutHelper::GetUpdatedVisualSize(void)
	?LayoutPanVisual@TGlxLayoutHelper@@QAEXHVTSize@@@Z @ 21 NONAME ; void TGlxLayoutHelper::LayoutPanVisual(int, class TSize)
	?LayoutVisual@TGlxLayoutHelper@@QAEXHVTSize@@@Z @ 22 NONAME ; void TGlxLayoutHelper::LayoutVisual(int, class TSize)
	?Next@CGlxLayout@@UBEPAVMGlxLayout@@XZ @ 23 NONAME ; class MGlxLayout * CGlxLayout::Next(void) const
	?Next@TGlxLayout@@UBEPAVMGlxLayout@@XZ @ 24 NONAME ; class MGlxLayout * TGlxLayout::Next(void) const
	?RemoveLayout@TGlxLayoutSplitter@@QAEXPBVCAlfVisual@@@Z @ 25 NONAME ; void TGlxLayoutSplitter::RemoveLayout(class CAlfVisual const *)
	?Reset@TGlxLayoutInfoResetter@@QAEXH@Z @ 26 NONAME ; void TGlxLayoutInfoResetter::Reset(int)
	?Reset@TGlxLayoutSplitter@@QAEXXZ @ 27 NONAME ; void TGlxLayoutSplitter::Reset(void)
	?SetDefaultLayout@TGlxLayoutSplitter@@QAEXPAVMGlxLayout@@@Z @ 28 NONAME ; void TGlxLayoutSplitter::SetDefaultLayout(class MGlxLayout *)
	?SetLayout@TGlxLayoutHelper@@QAEXPAVMGlxLayout@@@Z @ 29 NONAME ; void TGlxLayoutHelper::SetLayout(class MGlxLayout *)
	?SetLayoutL@TGlxLayoutSplitter@@QAEXPAVMGlxLayout@@PBVCAlfVisual@@@Z @ 30 NONAME ; void TGlxLayoutSplitter::SetLayoutL(class MGlxLayout *, class CAlfVisual const *)
	?SetLayoutValues@CGlxLayout@@UAEXAAVTGlxLayoutInfo@@@Z @ 31 NONAME ; void CGlxLayout::SetLayoutValues(class TGlxLayoutInfo &)
	?SetLayoutValues@TGlxLayout@@UAEXAAVTGlxLayoutInfo@@@Z @ 32 NONAME ; void TGlxLayout::SetLayoutValues(class TGlxLayoutInfo &)
	?SetNext@CGlxLayout@@UAEXPAVMGlxLayout@@@Z @ 33 NONAME ; void CGlxLayout::SetNext(class MGlxLayout *)
	?SetNext@TGlxLayout@@UAEXPAVMGlxLayout@@@Z @ 34 NONAME ; void TGlxLayout::SetNext(class MGlxLayout *)
	?SetOpacity@TGlxSetValueLayout@@QAEXMH@Z @ 35 NONAME ; void TGlxSetValueLayout::SetOpacity(float, int)
	?SetPosition@TGlxSetValueLayout@@QAEXMMH@Z @ 36 NONAME ; void TGlxSetValueLayout::SetPosition(float, float, int)
	?SetRotation@TGlxRotationLayout@@QAEXMH@Z @ 37 NONAME ; void TGlxRotationLayout::SetRotation(float, int)
	?SetScreenSize@TGlxLayoutInfoResetter@@QAEXVTSize@@@Z @ 38 NONAME ; void TGlxLayoutInfoResetter::SetScreenSize(class TSize)
	?SetSize@TGlxSetValueLayout@@QAEXMMH@Z @ 39 NONAME ; void TGlxSetValueLayout::SetSize(float, float, int)
	?SetVisual@TGlxLayoutInfoResetter@@QAEXPAVCAlfVisual@@@Z @ 40 NONAME ; void TGlxLayoutInfoResetter::SetVisual(class CAlfVisual *)
	?SetVisualListL@TGlxFollowFocusLayout@@QAEXPAVMGlxVisualList@@@Z @ 41 NONAME ; void TGlxFollowFocusLayout::SetVisualListL(class MGlxVisualList *)
	?SetVisualListL@TGlxLayoutSplitter@@QAEXPAVMGlxVisualList@@@Z @ 42 NONAME ; void TGlxLayoutSplitter::SetVisualListL(class MGlxVisualList *)

