EXPORTS
	?retrieveItemUri@GlxMLWrapper@@QAE?AVQString@@H@Z @ 1 NONAME ; class QString GlxMLWrapper::retrieveItemUri(int)
	?itemCorrupted@GlxMLWrapper@@IAEXH@Z @ 2 NONAME ; void GlxMLWrapper::itemCorrupted(int)
	?trUtf8@GlxMLWrapper@@SA?AVQString@@PBD0H@Z @ 3 NONAME ; class QString GlxMLWrapper::trUtf8(char const *, char const *, int)
	?handleGeneralError@GlxMLWrapper@@QAEXH@Z @ 4 NONAME ; void GlxMLWrapper::handleGeneralError(int)
	?updateItem@GlxMLWrapper@@IAEXHW4GlxTBContextType@@@Z @ 5 NONAME ; void GlxMLWrapper::updateItem(int, enum GlxTBContextType)
	?removeItems@GlxMLWrapper@@IAEXHH@Z @ 6 NONAME ; void GlxMLWrapper::removeItems(int, int)
	?getItemCount@GlxMLWrapper@@QAEHXZ @ 7 NONAME ; int GlxMLWrapper::getItemCount(void)
	?getVisibleWindowIndex@GlxMLWrapper@@QAEHXZ @ 8 NONAME ; int GlxMLWrapper::getVisibleWindowIndex(void)
	?setFocusIndex@GlxMLWrapper@@QAEXH@Z @ 9 NONAME ; void GlxMLWrapper::setFocusIndex(int)
	?retrieveItemDate@GlxMLWrapper@@QAE?AVQDate@@H@Z @ 10 NONAME ; class QDate GlxMLWrapper::retrieveItemDate(int)
	?qt_metacall@GlxMLWrapper@@UAEHW4Call@QMetaObject@@HPAPAX@Z @ 11 NONAME ; int GlxMLWrapper::qt_metacall(enum QMetaObject::Call, int, void * *)
	?retrieveItemFrameCount@GlxMLWrapper@@QAEHH@Z @ 12 NONAME ; int GlxMLWrapper::retrieveItemFrameCount(int)
	?retrieveListTitle@GlxMLWrapper@@QAE?AVQString@@H@Z @ 13 NONAME ; class QString GlxMLWrapper::retrieveListTitle(int)
	?tr@GlxMLWrapper@@SA?AVQString@@PBD0@Z @ 14 NONAME ; class QString GlxMLWrapper::tr(char const *, char const *)
	?setVisibleWindowIndex@GlxMLWrapper@@QAEXH@Z @ 15 NONAME ; void GlxMLWrapper::setVisibleWindowIndex(int)
	?getStaticMetaObject@GlxMLWrapper@@SAABUQMetaObject@@XZ @ 16 NONAME ; struct QMetaObject const & GlxMLWrapper::getStaticMetaObject(void)
	?retrieveListSubTitle@GlxMLWrapper@@QAE?AVQString@@H@Z @ 17 NONAME ; class QString GlxMLWrapper::retrieveListSubTitle(int)
	?staticMetaObject@GlxMLWrapper@@2UQMetaObject@@B @ 18 NONAME ; struct QMetaObject const GlxMLWrapper::staticMetaObject
	?handleListItemAvailable@GlxMLWrapper@@QAEXH@Z @ 19 NONAME ; void GlxMLWrapper::handleListItemAvailable(int)
	?trUtf8@GlxMLWrapper@@SA?AVQString@@PBD0@Z @ 20 NONAME ; class QString GlxMLWrapper::trUtf8(char const *, char const *)
	?itemsRemoved@GlxMLWrapper@@QAEXHH@Z @ 21 NONAME ; void GlxMLWrapper::itemsRemoved(int, int)
	?metaObject@GlxMLWrapper@@UBEPBUQMetaObject@@XZ @ 22 NONAME ; struct QMetaObject const * GlxMLWrapper::metaObject(void) const
	?insertItems@GlxMLWrapper@@IAEXHH@Z @ 23 NONAME ; void GlxMLWrapper::insertItems(int, int)
	?getFocusIndex@GlxMLWrapper@@QBEHXZ @ 24 NONAME ; int GlxMLWrapper::getFocusIndex(void) const
	?handleIconCorrupt@GlxMLWrapper@@QAEXH@Z @ 25 NONAME ; void GlxMLWrapper::handleIconCorrupt(int)
	?retrieveItemDimension@GlxMLWrapper@@QAE?AVQSize@@H@Z @ 26 NONAME ; class QSize GlxMLWrapper::retrieveItemDimension(int)
	?RetrieveL@GlxAttributeRetriever@@SAHABVMGlxFetchContext@@AAVMGlxMediaList@@H@Z @ 27 NONAME ; int GlxAttributeRetriever::RetrieveL(class MGlxFetchContext const &, class MGlxMediaList &, int)
	?handleReceivedIcon@GlxMLWrapper@@QAEXHW4GlxTBContextType@@@Z @ 28 NONAME ; void GlxMLWrapper::handleReceivedIcon(int, enum GlxTBContextType)
	?tr@GlxMLWrapper@@SA?AVQString@@PBD0H@Z @ 29 NONAME ; class QString GlxMLWrapper::tr(char const *, char const *, int)
	??_EGlxMLWrapper@@UAE@I@Z @ 30 NONAME ; GlxMLWrapper::~GlxMLWrapper(unsigned int)
	??0GlxMLWrapper@@QAE@HHW4TGlxFilterItemType@@@Z @ 31 NONAME ; GlxMLWrapper::GlxMLWrapper(int, int, enum TGlxFilterItemType)
	?setContextMode@GlxMLWrapper@@QAEXW4GlxContextMode@@@Z @ 32 NONAME ; void GlxMLWrapper::setContextMode(enum GlxContextMode)
	??1GlxMLWrapper@@UAE@XZ @ 33 NONAME ; GlxMLWrapper::~GlxMLWrapper(void)
	?RetrieveBitmap@GlxMLWrapper@@QAE?AVQVariant@@H@Z @ 34 NONAME ; class QVariant GlxMLWrapper::RetrieveBitmap(int)
	?qt_metacast@GlxMLWrapper@@UAEPAXPBD@Z @ 35 NONAME ; void * GlxMLWrapper::qt_metacast(char const *)
	?setSelectedIndex@GlxMLWrapper@@QAEXH@Z @ 36 NONAME ; void GlxMLWrapper::setSelectedIndex(int)
	?itemsAdded@GlxMLWrapper@@QAEXHH@Z @ 37 NONAME ; void GlxMLWrapper::itemsAdded(int, int)
	?retrieveItemIcon@GlxMLWrapper@@QAEPAVHbIcon@@HW4GlxTBContextType@@@Z @ 38 NONAME ; class HbIcon * GlxMLWrapper::retrieveItemIcon(int, enum GlxTBContextType)

