EXPORTS
	_ZN13CGlxUiUtility12TextStyleIdLEii @ 1 NONAME
	_ZN13CGlxUiUtility14IsExitingStateEv @ 2 NONAME
	_ZN13CGlxUiUtility14IsPenSupportedEv @ 3 NONAME
	_ZN13CGlxUiUtility15GetGridIconSizeEv @ 4 NONAME
	_ZN13CGlxUiUtility15HideAlfDisplayLEv @ 5 NONAME
	_ZN13CGlxUiUtility15ScreenFurnitureEv @ 6 NONAME
	_ZN13CGlxUiUtility15SetExitingStateEi @ 7 NONAME
	_ZN13CGlxUiUtility15ShowAlfDisplayLEv @ 8 NONAME
	_ZN13CGlxUiUtility17GlxTextureManagerEv @ 9 NONAME
	_ZN13CGlxUiUtility18SetAppOrientationLE15TGlxOrientation @ 10 NONAME
	_ZN13CGlxUiUtility19GetRotatedImageSizeEv @ 11 NONAME
	_ZN13CGlxUiUtility19SetRotatedImageSizeE5TSize @ 12 NONAME
	_ZN13CGlxUiUtility22AddSkinChangeObserverLER22MGlxSkinChangeObserver @ 13 NONAME
	_ZN13CGlxUiUtility22HandleTvStatusChangedLE13TTvChangeType @ 14 NONAME
	_ZN13CGlxUiUtility23ViewNavigationDirectionEv @ 15 NONAME
	_ZN13CGlxUiUtility24RemoveSkinChangeObserverER22MGlxSkinChangeObserver @ 16 NONAME
	_ZN13CGlxUiUtility26SetViewNavigationDirectionE23TGlxNavigationDirection @ 17 NONAME
	_ZN13CGlxUiUtility30VisibleItemsInPageGranularityLEv @ 18 NONAME
	_ZN13CGlxUiUtility5CloseEv @ 19 NONAME
	_ZN13CGlxUiUtility8UtilityLEv @ 20 NONAME
	_ZN14GlxSetAppState8AppStateEv @ 21 NONAME
	_ZN14GlxSetAppState8SetStateE12TGlxAppState @ 22 NONAME
	_ZN18CGlxTextEntryPopup15SetLeftSoftKeyLEi @ 23 NONAME
	_ZN18CGlxTextEntryPopup4NewLERK7TDesC16R6TDes16 @ 24 NONAME
	_ZN18CGlxTextEntryPopup9ExecuteLDEv @ 25 NONAME
	_ZN19CGlxScreenFurniture11SetTooltipLEiN10CAknButton16TTooltipPositionERK7TDesC16 @ 26 NONAME
	_ZN19CGlxScreenFurniture13SetActiveViewEi @ 27 NONAME
	_ZN19CGlxScreenFurniture15ViewDeactivatedEi @ 28 NONAME
	_ZN19CGlxScreenFurniture16ModifySoftkeyIdLEN24CEikButtonGroupContainer16TCommandPositionEiiRK7TDesC16 @ 29 NONAME
	_ZN19CGlxScreenFurniture18SetToolbarPositionEv @ 30 NONAME
	_ZN19CGlxScreenFurniture20SetToolbarItemDimmedEii @ 31 NONAME
	_ZN19CGlxScreenFurniture20SetToolbarVisibilityEi @ 32 NONAME
	_ZN19CGlxScreenFurniture24SetToolbarItemVisibilityEii @ 33 NONAME
	_ZN19CGlxScreenFurniture4NewLER13CGlxUiUtility @ 34 NONAME
	_ZN19CGlxScreenFurniture5NewLCER13CGlxUiUtility @ 35 NONAME
	_ZN19CGlxScreenFurniture9SetFocusLEi @ 36 NONAME
	_ZN19GlxAnimationFactory20CreateViewAnimationLE23TGlxViewswitchAnimation23TGlxNavigationDirectionP16CAlfControlGroup @ 37 NONAME
	_ZN19GlxAnimationFactory20CreateViewAnimationLE23TGlxViewswitchAnimation23TGlxNavigationDirectionR13RPointerArrayI16CAlfControlGroupE @ 38 NONAME
	_ZN19GlxAnimationFactory28CreateImageLoadingAnimationLER10CAlfVisualR11CAlfTexture @ 39 NONAME
	_ZN21GlxAttributeRetriever9RetrieveLERK16MGlxFetchContextR13MGlxMediaListi @ 40 NONAME
	_ZN21GlxGeneralUiUtilities11IsLandscapeEv @ 41 NONAME
	_ZN21GlxGeneralUiUtilities12FormatStringER6TDes16RK7TDesC16iii @ 42 NONAME
	_ZN21GlxGeneralUiUtilities13ConfirmQueryLERK7TDesC16 @ 43 NONAME
	_ZN21GlxGeneralUiUtilities13ConfirmQueryLEiRK7TDesC16 @ 44 NONAME
	_ZN21GlxGeneralUiUtilities13ShowInfoNoteLERK7TDesC16i @ 45 NONAME
	_ZN21GlxGeneralUiUtilities14ShowErrorNoteLERK7TDesC16i @ 46 NONAME
	_ZN21GlxGeneralUiUtilities14ShowErrorNoteLEi @ 47 NONAME
	_ZN21GlxGeneralUiUtilities16LayoutIsMirroredEv @ 48 NONAME
	_ZN21GlxGeneralUiUtilities21ShowConfirmationNoteLERK7TDesC16i @ 49 NONAME
	_ZN27CGlxActiveMediaListRegistry23RegisterActiveMediaListEP13MGlxMediaList @ 50 NONAME
	_ZN27CGlxActiveMediaListRegistry25DeregisterActiveMediaListEP13MGlxMediaList @ 51 NONAME
	_ZN27CGlxActiveMediaListRegistry9InstanceLEP33MGlxActiveMediaListChangeObserver @ 52 NONAME
	_ZN27MGlxActiveMediaListResolver9InstanceLEP33MGlxActiveMediaListChangeObserver @ 53 NONAME
	_ZNK13CGlxUiUtility11DisplaySizeEv @ 54 NONAME
	_ZNK13CGlxUiUtility14AppOrientationEv @ 55 NONAME
	_ZNK13CGlxUiUtility3EnvEv @ 56 NONAME
	_ZNK13CGlxUiUtility7DisplayEv @ 57 NONAME
	_ZTI13CGlxUiUtility @ 58 NONAME
	_ZTI17CGlxAnimationView @ 59 NONAME
	_ZTI18CGlxAnimationTimed @ 60 NONAME
	_ZTI18CGlxTextEntryPopup @ 61 NONAME
	_ZTI21CGlxSkinChangeMonitor @ 62 NONAME
	_ZTI25CGlxAnimationImageLoading @ 63 NONAME
	_ZTI32CGlxWaitDialogAttributeRetriever @ 64 NONAME
	_ZTI33CGlxSynchronousAttributeRetriever @ 65 NONAME
	_ZTV13CGlxUiUtility @ 66 NONAME
	_ZTV17CGlxAnimationView @ 67 NONAME
	_ZTV18CGlxAnimationTimed @ 68 NONAME
	_ZTV18CGlxTextEntryPopup @ 69 NONAME
	_ZTV21CGlxSkinChangeMonitor @ 70 NONAME
	_ZTV25CGlxAnimationImageLoading @ 71 NONAME
	_ZTV32CGlxWaitDialogAttributeRetriever @ 72 NONAME
	_ZTV33CGlxSynchronousAttributeRetriever @ 73 NONAME
	_ZThn4_N13CGlxUiUtility22HandleTvStatusChangedLE13TTvChangeType @ 74 NONAME
	_ZN13CGlxUiUtility15StartTNMDaemonLEv @ 75 NONAME
	_ZN13CGlxUiUtility18GetItemsLeftCountLEv @ 76 NONAME
	_ZN21CGlxProgressIndicator4NewLER23MDialogDismisedObserver @ 77 NONAME
	_ZTI21CGlxProgressIndicator @ 78 NONAME
	_ZTV21CGlxProgressIndicator @ 79 NONAME
	_ZN13CGlxUiUtility14StopTNMDaemonLEv @ 80 NONAME
	_ZN15CGlxMMCNotifier4NewLER24MStorageNotifierObserver @ 81 NONAME
	_ZTI15CGlxMMCNotifier @ 82 NONAME
	_ZTV15CGlxMMCNotifier @ 83 NONAME
	_ZN13CGlxUiUtility14GetGridToolBarEv @ 84 NONAME
	_ZN13CGlxUiUtility14SetGridToolBarEP11CAknToolbar @ 85 NONAME

