EXPORTS
	?SetToFirst@TGlxSelectionIterator@@UAEXPBVMGlxMediaList@@@Z @ 1 NONAME ; void TGlxSelectionIterator::SetToFirst(class MGlxMediaList const *)
	??0TGlxExclusionIterator@@QAE@AAVMGlxMediaListIterator@@0@Z @ 2 NONAME ; TGlxExclusionIterator::TGlxExclusionIterator(class MGlxMediaListIterator &, class MGlxMediaListIterator &)
	?SetHighQualityOnly@CGlxThumbnailContext@@QAEXH@Z @ 3 NONAME ; void CGlxThumbnailContext::SetHighQualityOnly(int)
	??0TGlxFetchContextRemover@@QAE@PAVMGlxFetchContext@@AAVMGlxMediaList@@@Z @ 4 NONAME ; TGlxFetchContextRemover::TGlxFetchContextRemover(class MGlxFetchContext *, class MGlxMediaList &)
	?SetToFirst@TGlxExclusionIterator@@UAEXPBVMGlxMediaList@@@Z @ 5 NONAME ; void TGlxExclusionIterator::SetToFirst(class MGlxMediaList const *)
	?NewL@CGlxThumbnailContext@@SAPAV1@PAVMGlxMediaListIterator@@@Z @ 6 NONAME ; class CGlxThumbnailContext * CGlxThumbnailContext::NewL(class MGlxMediaListIterator *)
	??1CGlxListWindow@@UAE@XZ @ 7 NONAME ; CGlxListWindow::~CGlxListWindow(void)
	?SetDisabledIfMoreThanRangeSelected@TGlxSelectionIterator@@QAEXH@Z @ 8 NONAME ; void TGlxSelectionIterator::SetDisabledIfMoreThanRangeSelected(int)
	??0TGlxWindowIterator@@QAE@ABV0@@Z @ 9 NONAME ; TGlxWindowIterator::TGlxWindowIterator(class TGlxWindowIterator const &)
	?NewL@CGlxDefaultAttributeContext@@SAPAV1@XZ @ 10 NONAME ; class CGlxDefaultAttributeContext * CGlxDefaultAttributeContext::NewL(void)
	?SetRangeOffsets@TGlxFromFocusOutwardIterator@@QAEXHH@Z @ 11 NONAME ; void TGlxFromFocusOutwardIterator::SetRangeOffsets(int, int)
	?GetSize@TGlxMedia@@QBEHAAH@Z @ 12 NONAME ; int TGlxMedia::GetSize(int &) const
	??ETGlxWindowIterator@@QAEHH@Z @ 13 NONAME ; int TGlxWindowIterator::operator++(int)
	?__DbgTestInvariant@CGlxListWindow@@QBEXXZ @ 14 NONAME ; void CGlxListWindow::__DbgTestInvariant(void) const
	?NewL@CGlxDefaultListAttributeContext@@SAPAV1@XZ @ 15 NONAME ; class CGlxDefaultListAttributeContext * CGlxDefaultListAttributeContext::NewL(void)
	?InstanceL@MGlxCache@@SAPAV1@XZ @ 16 NONAME ; class MGlxCache * MGlxCache::InstanceL(void)
	?Reset@CGlxMedia@@QAEXXZ @ 17 NONAME ; void CGlxMedia::Reset(void)
	?AddObjects@CGlxListWindow@@QAEXHHHH@Z @ 18 NONAME ; void CGlxListWindow::AddObjects(int, int, int, int)
	??0CGlxThumbnailContext@@QAE@PAVMGlxMediaListIterator@@@Z @ 19 NONAME ; CGlxThumbnailContext::CGlxThumbnailContext(class MGlxMediaListIterator *)
	?SetRangeOffsetsL@CGlxListWindow@@QAEXHHHH@Z @ 20 NONAME ; void CGlxListWindow::SetRangeOffsetsL(int, int, int, int)
	??0TGlxFromFocusOutwardBlockyIterator@@QAE@XZ @ 21 NONAME ; TGlxFromFocusOutwardBlockyIterator::TGlxFromFocusOutwardBlockyIterator(void)
	?UnmarkAllL@MGlxMediaList@@SAXAAV1@@Z @ 22 NONAME ; void MGlxMediaList::UnmarkAllL(class MGlxMediaList &)
	?IdSpaceId@TGlxMedia@@QBE?AV?$TGlxId@VTGlxIdSpaceIdBase@@@@XZ @ 23 NONAME ; class TGlxId<class TGlxIdSpaceIdBase> TGlxMedia::IdSpaceId(void) const
	??1TGlxSelectionIterator@@QAE@XZ @ 24 NONAME ; TGlxSelectionIterator::~TGlxSelectionIterator(void)
	?SetGranularity@CGlxAttributeContext@@QAEXI@Z @ 25 NONAME ; void CGlxAttributeContext::SetGranularity(unsigned int)
	??0TGlxSelectionIterator@@QAE@XZ @ 26 NONAME ; TGlxSelectionIterator::TGlxSelectionIterator(void)
	??0TGlxFromFocusOutwardIterator@@QAE@XZ @ 27 NONAME ; TGlxFromFocusOutwardIterator::TGlxFromFocusOutwardIterator(void)
	?SubTitle@TGlxMedia@@QBEABVTDesC16@@XZ @ 28 NONAME ; class TDesC16 const & TGlxMedia::SubTitle(void) const
	??1TGlxFromManualIndexOutwardBlockyIterator@@QAE@XZ @ 29 NONAME ; TGlxFromManualIndexOutwardBlockyIterator::~TGlxFromManualIndexOutwardBlockyIterator(void)
	?GetFrameCount@TGlxMedia@@QBEHAAH@Z @ 30 NONAME ; int TGlxMedia::GetFrameCount(int &) const
	??0TGlxFromManualIndexBlockyIterator@@QAE@XZ @ 31 NONAME ; TGlxFromManualIndexBlockyIterator::TGlxFromManualIndexBlockyIterator(void)
	?SetRangeOffsets@TGlxFromIndexOutwardBlockyIterator@@QAEXHH@Z @ 32 NONAME ; void TGlxFromIndexOutwardBlockyIterator::SetRangeOffsets(int, int)
	?SetFocusIndex@CGlxListWindow@@QAEXH@Z @ 33 NONAME ; void CGlxListWindow::SetFocusIndex(int)
	??1TGlxFromFocusOutwardBlockyIterator@@QAE@XZ @ 34 NONAME ; TGlxFromFocusOutwardBlockyIterator::~TGlxFromFocusOutwardBlockyIterator(void)
	??1CGlxDefaultThumbnailContext@@UAE@XZ @ 35 NONAME ; CGlxDefaultThumbnailContext::~CGlxDefaultThumbnailContext(void)
	?IsFullThumbnail@GlxThumbnailUtility@@SAHABVTMPXAttribute@@@Z @ 36 NONAME ; int GlxThumbnailUtility::IsFullThumbnail(class TMPXAttribute const &)
	??0TGlxFromIndexOutwardBlockyIterator@@QAE@ABVMGlxIndex@0@@Z @ 37 NONAME ; TGlxFromIndexOutwardBlockyIterator::TGlxFromIndexOutwardBlockyIterator(class TGlxFromIndexOutwardBlockyIterator::MGlxIndex const &)
	?ConstructL@CGlxListWindow@@QAEXXZ @ 38 NONAME ; void CGlxListWindow::ConstructL(void)
	?SetRange@TGlxSequentialIterator@@QAEXH@Z @ 39 NONAME ; void TGlxSequentialIterator::SetRange(int)
	??1TGlxFromVisibleIndexOutwardListIterator@@QAE@XZ @ 40 NONAME ; TGlxFromVisibleIndexOutwardListIterator::~TGlxFromVisibleIndexOutwardListIterator(void)
	?GetStaticItemCommand@TGlxMedia@@QBEHAAH@Z @ 41 NONAME ; int TGlxMedia::GetStaticItemCommand(int &) const
	?SetRangeOffsets@TGlxFromManualIndexBlockyIterator@@QAEXHH@Z @ 42 NONAME ; void TGlxFromManualIndexBlockyIterator::SetRangeOffsets(int, int)
	?SetIndex@TGlxFromManualIndexOutwardBlockyIterator@@QAEXH@Z @ 43 NONAME ; void TGlxFromManualIndexOutwardBlockyIterator::SetIndex(int)
	?HandleModified@CGlxMedia@@QAEXABV?$RArray@VTMPXAttribute@@@@@Z @ 44 NONAME ; void CGlxMedia::HandleModified(class RArray<class TMPXAttribute> const &)
	?GetLastModifiedDate@TGlxMedia@@QBEHAAVTTime@@@Z @ 45 NONAME ; int TGlxMedia::GetLastModifiedDate(class TTime &) const
	?GetContainedItemCount@TGlxMedia@@QBEHAAH@Z @ 46 NONAME ; int TGlxMedia::GetContainedItemCount(int &) const
	?SetRange@TGlxSelectionIterator@@QAEXH@Z @ 47 NONAME ; void TGlxSelectionIterator::SetRange(int)
	?GetDimensions@TGlxMedia@@QBEHAAVTSize@@@Z @ 48 NONAME ; int TGlxMedia::GetDimensions(class TSize &) const
	?GetDate@TGlxMedia@@QBEHAAVTTime@@@Z @ 49 NONAME ; int TGlxMedia::GetDate(class TTime &) const
	?GetValueText@CGlxMedia@@QBEHAAVTPtrC16@@ABVTMPXAttribute@@@Z @ 50 NONAME ; int CGlxMedia::GetValueText(class TPtrC16 &, class TMPXAttribute const &) const
	?SetTextValueL@CGlxMedia@@QAEXABVTMPXAttribute@@ABVTDesC16@@@Z @ 51 NONAME ; void CGlxMedia::SetTextValueL(class TMPXAttribute const &, class TDesC16 const &)
	?SetDefaultSpec@CGlxAttributeContext@@QAEXHH@Z @ 52 NONAME ; void CGlxAttributeContext::SetDefaultSpec(int, int)
	?IsStatic@TGlxMedia@@QBEHXZ @ 53 NONAME ; int TGlxMedia::IsStatic(void) const
	??0CGlxListWindow@@QAE@AAVMGlxWindowObjectFactory@@@Z @ 54 NONAME ; CGlxListWindow::CGlxListWindow(class MGlxWindowObjectFactory &)
	?AddSpecForItemL@CGlxThumbnailContext@@QAEXHHH@Z @ 55 NONAME ; void CGlxThumbnailContext::AddSpecForItemL(int, int, int)
	??1CGlxDefaultAttributeContext@@UAE@XZ @ 56 NONAME ; CGlxDefaultAttributeContext::~CGlxDefaultAttributeContext(void)
	?ThumbnailAttribute@TGlxMedia@@QBEPBVCGlxThumbnailAttribute@@AAVTMPXAttribute@@@Z @ 57 NONAME ; class CGlxThumbnailAttribute const * TGlxMedia::ThumbnailAttribute(class TMPXAttribute &) const
	??1TGlxFirstThenLastIterator@@QAE@XZ @ 58 NONAME ; TGlxFirstThenLastIterator::~TGlxFirstThenLastIterator(void)
	?Title@TGlxMedia@@QBEABVTDesC16@@XZ @ 59 NONAME ; class TDesC16 const & TGlxMedia::Title(void) const
	??ETGlxSelectionIterator@@UAEHH@Z @ 60 NONAME ; int TGlxSelectionIterator::operator++(int)
	?AddAttributeL@CGlxAttributeContext@@QAEXABVTMPXAttribute@@@Z @ 61 NONAME ; void CGlxAttributeContext::AddAttributeL(class TMPXAttribute const &)
	?SetRangeOffsets@CGlxDefaultThumbnailContext@@QAEXHH@Z @ 62 NONAME ; void CGlxDefaultThumbnailContext::SetRangeOffsets(int, int)
	?__DbgTestInvariant@CGlxStaticItemList@@QBEXXZ @ 63 NONAME ; void CGlxStaticItemList::__DbgTestInvariant(void) const
	?GetDuration@TGlxMedia@@QBEHAAM@Z @ 64 NONAME ; int TGlxMedia::GetDuration(float &) const
	?DeleteAttribute@CGlxMedia@@QAEXABVTMPXAttribute@@@Z @ 65 NONAME ; void CGlxMedia::DeleteAttribute(class TMPXAttribute const &)
	?InstanceL@MGlxMediaList@@SAPAV1@ABVCMPXCollectionPath@@ABV?$TGlxId@VTGlxIdHierarchyBase@@@@PAVCMPXMedia@@@Z @ 66 NONAME ; class MGlxMediaList * MGlxMediaList::InstanceL(class CMPXCollectionPath const &, class TGlxId<class TGlxIdHierarchyBase> const &, class CMPXMedia *)
	?SetCObjectValueL@CGlxMedia@@QAEXABVTMPXAttribute@@PAVCBase@@@Z @ 67 NONAME ; void CGlxMedia::SetCObjectValueL(class TMPXAttribute const &, class CBase *)
	?RemoveObjects@CGlxListWindow@@QAEXHHHH@Z @ 68 NONAME ; void CGlxListWindow::RemoveObjects(int, int, int, int)
	?Iterator@CGlxListWindow@@QBE?AVTGlxWindowIterator@@XZ @ 69 NONAME ; class TGlxWindowIterator CGlxListWindow::Iterator(void) const
	?Category@TGlxMedia@@QBE?AW4TMPXGeneralCategory@@XZ @ 70 NONAME ; enum TMPXGeneralCategory TGlxMedia::Category(void) const
	??0CGlxAttributeContext@@QAE@PAVMGlxMediaListIterator@@@Z @ 71 NONAME ; CGlxAttributeContext::CGlxAttributeContext(class MGlxMediaListIterator *)
	?GetIconInfo@TGlxMedia@@QBEHAAUTIconInfo@@@Z @ 72 NONAME ; int TGlxMedia::GetIconInfo(struct TIconInfo &) const
	?__DbgTestInvariant@CGlxItemList@@QBEXXZ @ 73 NONAME ; void CGlxItemList::__DbgTestInvariant(void) const
	?AddObjects@CGlxListWindow@@QAEXHH@Z @ 74 NONAME ; void CGlxListWindow::AddObjects(int, int)
	?Comment@TGlxMedia@@QBEABVTDesC16@@XZ @ 75 NONAME ; class TDesC16 const & TGlxMedia::Comment(void) const
	?HasAttributeErrorL@GlxErrorManager@@SAHPBVCGlxMedia@@ABVTMPXAttribute@@@Z @ 76 NONAME ; int GlxErrorManager::HasAttributeErrorL(class CGlxMedia const *, class TMPXAttribute const &)
	??0TGlxSequentialIterator@@QAE@XZ @ 77 NONAME ; TGlxSequentialIterator::TGlxSequentialIterator(void)
	?AttributeCount@CGlxAttributeContext@@QAEHXZ @ 78 NONAME ; int CGlxAttributeContext::AttributeCount(void)
	?GetDrmValidity@TGlxMedia@@QBEHAAW4TGlxMediaGeneralRightsValidity@@@Z @ 79 NONAME ; int TGlxMedia::GetDrmValidity(enum TGlxMediaGeneralRightsValidity &) const
	?__DbgTestInvariant@CGlxNavigableList@@QBEXXZ @ 80 NONAME ; void CGlxNavigableList::__DbgTestInvariant(void) const
	?SetFocusIndex@CGlxListWindow@@QAEXHH@Z @ 81 NONAME ; void CGlxListWindow::SetFocusIndex(int, int)
	?SetValueL@CGlxMedia@@QAEXABVTMPXAttribute@@PAXW4TMPXAttributeType@@@Z @ 82 NONAME ; void CGlxMedia::SetValueL(class TMPXAttribute const &, void *, enum TMPXAttributeType)
	?ValueText@CGlxMedia@@QBEABVTDesC16@@ABVTMPXAttribute@@@Z @ 83 NONAME ; class TDesC16 const & CGlxMedia::ValueText(class TMPXAttribute const &) const
	??0CGlxMedia@@QAE@ABVTGlxMediaId@@@Z @ 84 NONAME ; CGlxMedia::CGlxMedia(class TGlxMediaId const &)
	?DeleteLocationAttribute@TGlxMedia@@QAEXXZ @ 85 NONAME ; void TGlxMedia::DeleteLocationAttribute(void)
	?GetClosestThumbnail@TGlxMedia@@QBEHAAVTMPXAttribute@@ABVTSize@@H@Z @ 86 NONAME ; int TGlxMedia::GetClosestThumbnail(class TMPXAttribute &, class TSize const &, int) const
	??1CGlxMedia@@UAE@XZ @ 87 NONAME ; CGlxMedia::~CGlxMedia(void)
	?__DbgTestInvariant@CGlxMedia@@QBEXXZ @ 88 NONAME ; void CGlxMedia::__DbgTestInvariant(void) const
	?IsDrmProtected@TGlxMedia@@QBEHXZ @ 89 NONAME ; int TGlxMedia::IsDrmProtected(void) const
	??1CGlxThumbnailContext@@UAE@XZ @ 90 NONAME ; CGlxThumbnailContext::~CGlxThumbnailContext(void)
	?GetDrmProtected@TGlxMedia@@QBEHAAH@Z @ 91 NONAME ; int TGlxMedia::GetDrmProtected(int &) const
	?GetSystemItem@TGlxMedia@@QBEHAAH@Z @ 92 NONAME ; int TGlxMedia::GetSystemItem(int &) const
	?RemoveObjects@CGlxListWindow@@QAEXHH@Z @ 93 NONAME ; void CGlxListWindow::RemoveObjects(int, int)
	?Close@TGlxFetchContextRemover@@QAEXXZ @ 94 NONAME ; void TGlxFetchContextRemover::Close(void)
	?At@CGlxListWindow@@QBEPBVCBase@@H@Z @ 95 NONAME ; class CBase const * CGlxListWindow::At(int) const
	?HasAttributeErrorL@GlxErrorManager@@SAHPBVCGlxMedia@@H@Z @ 96 NONAME ; int GlxErrorManager::HasAttributeErrorL(class CGlxMedia const *, int)
	?At@CGlxListWindow@@QAEPAVCBase@@H@Z @ 97 NONAME ; class CBase * CGlxListWindow::At(int)
	??1TGlxFromManualIndexBlockyIterator@@QAE@XZ @ 98 NONAME ; TGlxFromManualIndexBlockyIterator::~TGlxFromManualIndexBlockyIterator(void)
	?RemoveAttribute@CGlxAttributeContext@@QAEXABVTMPXAttribute@@@Z @ 99 NONAME ; void CGlxAttributeContext::RemoveAttribute(class TMPXAttribute const &)
	??1TGlxFromIndexOutwardBlockyIterator@@QAE@XZ @ 100 NONAME ; TGlxFromIndexOutwardBlockyIterator::~TGlxFromIndexOutwardBlockyIterator(void)
	?ClosestThumbnail@GlxThumbnailUtility@@SAHABVTSize@@ABVCGlxMedia@@H@Z @ 101 NONAME ; int GlxThumbnailUtility::ClosestThumbnail(class TSize const &, class CGlxMedia const &, int)
	??0TGlxFromManualIndexOutwardBlockyIterator@@QAE@XZ @ 102 NONAME ; TGlxFromManualIndexOutwardBlockyIterator::TGlxFromManualIndexOutwardBlockyIterator(void)
	?Cleanup@CGlxListWindow@@QAEXXZ @ 103 NONAME ; void CGlxListWindow::Cleanup(void)
	??1TGlxExclusionIterator@@QAE@XZ @ 104 NONAME ; TGlxExclusionIterator::~TGlxExclusionIterator(void)
	??1CGlxDefaultListAttributeContext@@UAE@XZ @ 105 NONAME ; CGlxDefaultListAttributeContext::~CGlxDefaultListAttributeContext(void)
	??1TGlxFetchContextRemover@@QAE@XZ @ 106 NONAME ; TGlxFetchContextRemover::~TGlxFetchContextRemover(void)
	?SetRangeOffsets@TGlxFromVisibleIndexOutwardListIterator@@QAEXHH@Z @ 107 NONAME ; void TGlxFromVisibleIndexOutwardListIterator::SetRangeOffsets(int, int)
	?SetDefaultSpec@CGlxThumbnailContext@@QAEXHH@Z @ 108 NONAME ; void CGlxThumbnailContext::SetDefaultSpec(int, int)
	??0TGlxFromVisibleIndexOutwardListIterator@@QAE@XZ @ 109 NONAME ; TGlxFromVisibleIndexOutwardListIterator::TGlxFromVisibleIndexOutwardListIterator(void)
	??0TGlxSpecificIdIterator@@QAE@ABV?$TGlxId@VTGlxIdSpaceIdBase@@@@VTGlxMediaId@@@Z @ 110 NONAME ; TGlxSpecificIdIterator::TGlxSpecificIdIterator(class TGlxId<class TGlxIdSpaceIdBase> const &, class TGlxMediaId)
	?GetSlideshowPlayableContainedItemCount@TGlxMedia@@QBEHAAH@Z @ 111 NONAME ; int TGlxMedia::GetSlideshowPlayableContainedItemCount(int &) const
	?MatchById@TGlxMedia@@SAHABV1@0@Z @ 112 NONAME ; int TGlxMedia::MatchById(class TGlxMedia const &, class TGlxMedia const &)
	?SetRangeOffsetsL@CGlxListWindow@@QAEXHH@Z @ 113 NONAME ; void CGlxListWindow::SetRangeOffsetsL(int, int)
	?SetRangeOffsets@CGlxDefaultListAttributeContext@@QAEXHH@Z @ 114 NONAME ; void CGlxDefaultListAttributeContext::SetRangeOffsets(int, int)
	?MimeType@TGlxMedia@@QBEABVTDesC16@@XZ @ 115 NONAME ; class TDesC16 const & TGlxMedia::MimeType(void) const
	?Uri@TGlxMedia@@QBEABVTDesC16@@XZ @ 116 NONAME ; class TDesC16 const & TGlxMedia::Uri(void) const
	??0TGlxFirstThenLastIterator@@QAE@XZ @ 117 NONAME ; TGlxFirstThenLastIterator::TGlxFirstThenLastIterator(void)
	??1CGlxAttributeContext@@UAE@XZ @ 118 NONAME ; CGlxAttributeContext::~CGlxAttributeContext(void)
	?SetRangeOffsets@CGlxDefaultAttributeContext@@QAEXHH@Z @ 119 NONAME ; void CGlxDefaultAttributeContext::SetRangeOffsets(int, int)
	?ValueCObject@CGlxMedia@@QBEPBVCBase@@ABVTMPXAttribute@@@Z @ 120 NONAME ; class CBase const * CGlxMedia::ValueCObject(class TMPXAttribute const &) const
	?GetCoordinate@TGlxMedia@@QBEHAAVTCoordinate@@@Z @ 121 NONAME ; int TGlxMedia::GetCoordinate(class TCoordinate &) const
	?NewL@CGlxDefaultThumbnailContext@@SAPAV1@XZ @ 122 NONAME ; class CGlxDefaultThumbnailContext * CGlxDefaultThumbnailContext::NewL(void)
	?IsSlideShowPlayableContent@TGlxMedia@@QBEHXZ @ 123 NONAME ; int TGlxMedia::IsSlideShowPlayableContent(void) const
	??1TGlxFromFocusOutwardIterator@@QAE@XZ @ 124 NONAME ; TGlxFromFocusOutwardIterator::~TGlxFromFocusOutwardIterator(void)
	?InRange@TGlxSelectionIterator@@UBEHH@Z @ 125 NONAME ; int TGlxSelectionIterator::InRange(int) const

