EXPORTS
	?StartL@CShwSlideshowEngine@@QAEXAAVCAlfEnv@@AAVCAlfDisplay@@AAVMGlxMediaList@@AAVMShwMusicObserver@@VTSize@@@Z @ 1 NONAME ; void CShwSlideshowEngine::StartL(class CAlfEnv &, class CAlfDisplay &, class MGlxMediaList &, class MShwMusicObserver &, class TSize)
	??1CShwSlideshowEngine@@UAE@XZ @ 2 NONAME ; CShwSlideshowEngine::~CShwSlideshowEngine(void)
	??1CShwSettingsModel@@UAE@XZ @ 3 NONAME ; CShwSettingsModel::~CShwSettingsModel(void)
	?AvailableEffectsL@CShwSlideshowEngine@@SAXAAV?$RArray@VTShwEffectInfo@@@@@Z @ 4 NONAME ; void CShwSlideshowEngine::AvailableEffectsL(class RArray<class TShwEffectInfo> &)
	?SaveMusicNamePathL@CShwSettingsModel@@QAEXABVTDesC16@@@Z @ 5 NONAME ; void CShwSettingsModel::SaveMusicNamePathL(class TDesC16 const &)
	?State@CShwSlideshowEngine@@QBE?AW4TShwState@1@XZ @ 6 NONAME ; enum CShwSlideshowEngine::TShwState CShwSlideshowEngine::State(void) const
	?LSKPressedL@CShwSlideshowEngine@@QAEXXZ @ 7 NONAME ; void CShwSlideshowEngine::LSKPressedL(void)
	?PlayOrderL@CShwSettingsModel@@QAEHXZ @ 8 NONAME ; int CShwSettingsModel::PlayOrderL(void)
	?SaveMusicStateL@CShwSettingsModel@@QAEXH@Z @ 9 NONAME ; void CShwSettingsModel::SaveMusicStateL(int)
	?PreviousItemL@CShwSlideshowEngine@@QAEXXZ @ 10 NONAME ; void CShwSlideshowEngine::PreviousItemL(void)
	?VolumeDownL@CShwSlideshowEngine@@QAEXXZ @ 11 NONAME ; void CShwSlideshowEngine::VolumeDownL(void)
	?VolumeUpL@CShwSlideshowEngine@@QAEXXZ @ 12 NONAME ; void CShwSlideshowEngine::VolumeUpL(void)
	?SaveTransitionTypeL@CShwSettingsModel@@QAEXVTUid@@I@Z @ 13 NONAME ; void CShwSettingsModel::SaveTransitionTypeL(class TUid, unsigned int)
	?MusicNamePathL@CShwSettingsModel@@QBEXAAVTDes16@@@Z @ 14 NONAME ; void CShwSettingsModel::MusicNamePathL(class TDes16 &) const
	?NewL@CShwSettingsModel@@SAPAV1@XZ @ 15 NONAME ; class CShwSettingsModel * CShwSettingsModel::NewL(void)
	?NextItemL@CShwSlideshowEngine@@QAEXXZ @ 16 NONAME ; void CShwSlideshowEngine::NextItemL(void)
	?MusicOnL@CShwSettingsModel@@QBEHXZ @ 17 NONAME ; int CShwSettingsModel::MusicOnL(void) const
	?TransitionTypeL@CShwSettingsModel@@QBEXAAVTUid@@AAI@Z @ 18 NONAME ; void CShwSettingsModel::TransitionTypeL(class TUid &, unsigned int &) const
	?ResumeL@CShwSlideshowEngine@@QAEXXZ @ 19 NONAME ; void CShwSlideshowEngine::ResumeL(void)
	?SavePlayOrderL@CShwSettingsModel@@QAEXH@Z @ 20 NONAME ; void CShwSettingsModel::SavePlayOrderL(int)
	?SaveTransDelayL@CShwSettingsModel@@QAEXH@Z @ 21 NONAME ; void CShwSettingsModel::SaveTransDelayL(int)
	?TransDelayL@CShwSettingsModel@@QBEHXZ @ 22 NONAME ; int CShwSettingsModel::TransDelayL(void) const
	?GetMusicVolumeL@CShwSlideshowEngine@@QAEXXZ @ 23 NONAME ; void CShwSlideshowEngine::GetMusicVolumeL(void)
	?PauseL@CShwSlideshowEngine@@QAEXXZ @ 24 NONAME ; void CShwSlideshowEngine::PauseL(void)
	?ToggleUiControlsVisibiltyL@CShwSlideshowEngine@@QAEXXZ @ 25 NONAME ; void CShwSlideshowEngine::ToggleUiControlsVisibiltyL(void)
	?NewL@CShwSlideshowEngine@@SAPAV1@AAVMShwEngineObserver@@@Z @ 26 NONAME ; class CShwSlideshowEngine * CShwSlideshowEngine::NewL(class MShwEngineObserver &)

