EXPORTS
	_ZN16CGlxMetadataView4NewLEP20MGlxMediaListFactory @ 1 NONAME
	_ZN16CGlxMetadataView5NewLCEP20MGlxMediaListFactory @ 2 NONAME
	_ZN35TGlxMulTagsDetailsBindingSetFactoryC1Ev @ 3 NONAME
	_ZN35TGlxMulTagsDetailsBindingSetFactoryC2Ev @ 4 NONAME
	_ZN35TGlxMulTagsDetailsBindingSetFactoryD0Ev @ 5 NONAME
	_ZN35TGlxMulTagsDetailsBindingSetFactoryD1Ev @ 6 NONAME
	_ZN35TGlxMulTagsDetailsBindingSetFactoryD2Ev @ 7 NONAME
	_ZN36TGlxMulTitleDetailsBindingSetFactoryC1Ev @ 8 NONAME
	_ZN36TGlxMulTitleDetailsBindingSetFactoryC2Ev @ 9 NONAME
	_ZN36TGlxMulTitleDetailsBindingSetFactoryD0Ev @ 10 NONAME
	_ZN36TGlxMulTitleDetailsBindingSetFactoryD1Ev @ 11 NONAME
	_ZN36TGlxMulTitleDetailsBindingSetFactoryD2Ev @ 12 NONAME
	_ZN37TGlxMulAlbumsDetailsBindingSetFactoryC1Ev @ 13 NONAME
	_ZN37TGlxMulAlbumsDetailsBindingSetFactoryC2Ev @ 14 NONAME
	_ZN37TGlxMulAlbumsDetailsBindingSetFactoryD0Ev @ 15 NONAME
	_ZN37TGlxMulAlbumsDetailsBindingSetFactoryD1Ev @ 16 NONAME
	_ZN37TGlxMulAlbumsDetailsBindingSetFactoryD2Ev @ 17 NONAME
	_ZN39TGlxMulDurationDetailsBindingSetFactoryC1Ev @ 18 NONAME
	_ZN39TGlxMulDurationDetailsBindingSetFactoryC2Ev @ 19 NONAME
	_ZN39TGlxMulDurationDetailsBindingSetFactoryD0Ev @ 20 NONAME
	_ZN39TGlxMulDurationDetailsBindingSetFactoryD1Ev @ 21 NONAME
	_ZN39TGlxMulDurationDetailsBindingSetFactoryD2Ev @ 22 NONAME
	_ZN39TGlxMulFileSizeDetailsBindingSetFactoryC1Ev @ 23 NONAME
	_ZN39TGlxMulFileSizeDetailsBindingSetFactoryC2Ev @ 24 NONAME
	_ZN39TGlxMulFileSizeDetailsBindingSetFactoryD0Ev @ 25 NONAME
	_ZN39TGlxMulFileSizeDetailsBindingSetFactoryD1Ev @ 26 NONAME
	_ZN39TGlxMulFileSizeDetailsBindingSetFactoryD2Ev @ 27 NONAME
	_ZN39TGlxMulLocationDetailsBindingSetFactoryC1Ev @ 28 NONAME
	_ZN39TGlxMulLocationDetailsBindingSetFactoryC2Ev @ 29 NONAME
	_ZN39TGlxMulLocationDetailsBindingSetFactoryD0Ev @ 30 NONAME
	_ZN39TGlxMulLocationDetailsBindingSetFactoryD1Ev @ 31 NONAME
	_ZN39TGlxMulLocationDetailsBindingSetFactoryD2Ev @ 32 NONAME
	_ZN41TGlxMulResolutionDetailsBindingSetFactoryC1Ev @ 33 NONAME
	_ZN41TGlxMulResolutionDetailsBindingSetFactoryC2Ev @ 34 NONAME
	_ZN41TGlxMulResolutionDetailsBindingSetFactoryD0Ev @ 35 NONAME
	_ZN41TGlxMulResolutionDetailsBindingSetFactoryD1Ev @ 36 NONAME
	_ZN41TGlxMulResolutionDetailsBindingSetFactoryD2Ev @ 37 NONAME
	_ZN42TGlxMulDateAndTimeDetailsBindingSetFactoryC1Ev @ 38 NONAME
	_ZN42TGlxMulDateAndTimeDetailsBindingSetFactoryC2Ev @ 39 NONAME
	_ZN42TGlxMulDateAndTimeDetailsBindingSetFactoryD0Ev @ 40 NONAME
	_ZN42TGlxMulDateAndTimeDetailsBindingSetFactoryD1Ev @ 41 NONAME
	_ZN42TGlxMulDateAndTimeDetailsBindingSetFactoryD2Ev @ 42 NONAME
	_ZN42TGlxMulDescriptionDetailsBindingSetFactoryC1Ev @ 43 NONAME
	_ZN42TGlxMulDescriptionDetailsBindingSetFactoryC2Ev @ 44 NONAME
	_ZN42TGlxMulDescriptionDetailsBindingSetFactoryD0Ev @ 45 NONAME
	_ZN42TGlxMulDescriptionDetailsBindingSetFactoryD1Ev @ 46 NONAME
	_ZN42TGlxMulDescriptionDetailsBindingSetFactoryD2Ev @ 47 NONAME
	_ZN42TGlxMulUsageRightsDetailsBindingSetFactoryC1Ev @ 48 NONAME
	_ZN42TGlxMulUsageRightsDetailsBindingSetFactoryC2Ev @ 49 NONAME
	_ZN42TGlxMulUsageRightsDetailsBindingSetFactoryD0Ev @ 50 NONAME
	_ZN42TGlxMulUsageRightsDetailsBindingSetFactoryD1Ev @ 51 NONAME
	_ZN42TGlxMulUsageRightsDetailsBindingSetFactoryD2Ev @ 52 NONAME

