EXPORTS
	_ZN13GlxMediaModel10itemsAddedEii @ 1 NONAME
	_ZN13GlxMediaModel11qt_metacallEN11QMetaObject4CallEiPPv @ 2 NONAME
	_ZN13GlxMediaModel11qt_metacastEPKc @ 3 NONAME
	_ZN13GlxMediaModel12itemUpdated1Ei16GlxTBContextType @ 4 NONAME
	_ZN13GlxMediaModel12itemsRemovedEii @ 5 NONAME
	_ZN13GlxMediaModel13setFocusIndexERK11QModelIndex @ 6 NONAME
	_ZN13GlxMediaModel14setContextModeE14GlxContextMode @ 7 NONAME
	_ZN13GlxMediaModel14updateItemIconEiP6HbIcon16GlxTBContextType @ 8 NONAME
	_ZN13GlxMediaModel16addExternalItemsEP5QListI18GlxInterfaceParamsE @ 9 NONAME
	_ZN13GlxMediaModel16setSelectedIndexERK11QModelIndex @ 10 NONAME
	_ZN13GlxMediaModel16staticMetaObjectE @ 11 NONAME DATA 16
	_ZN13GlxMediaModel18clearExternalItemsEv @ 12 NONAME
	_ZN13GlxMediaModel19getStaticMetaObjectEv @ 13 NONAME
	_ZN13GlxMediaModel7setDataERK11QModelIndexRK8QVarianti @ 14 NONAME
	_ZN13GlxMediaModelC1ER12GlxModelParm @ 15 NONAME
	_ZN13GlxMediaModelC2ER12GlxModelParm @ 16 NONAME
	_ZN13GlxMediaModelD0Ev @ 17 NONAME
	_ZN13GlxMediaModelD1Ev @ 18 NONAME
	_ZN13GlxMediaModelD2Ev @ 19 NONAME
	_ZNK13GlxMediaModel10metaObjectEv @ 20 NONAME
	_ZNK13GlxMediaModel11columnCountERK11QModelIndex @ 21 NONAME
	_ZNK13GlxMediaModel13GetFsIconItemEi16GlxTBContextType @ 22 NONAME
	_ZNK13GlxMediaModel13getFocusIndexEv @ 23 NONAME
	_ZNK13GlxMediaModel13iconAvailableEiP6HbIcon16GlxTBContextType @ 24 NONAME
	_ZNK13GlxMediaModel15GetGridIconItemEi16GlxTBContextType @ 25 NONAME
	_ZNK13GlxMediaModel19GetExternalIconItemEi16GlxTBContextType @ 26 NONAME
	_ZNK13GlxMediaModel4dataERK11QModelIndexi @ 27 NONAME
	_ZNK13GlxMediaModel5indexEiiRK11QModelIndex @ 28 NONAME
	_ZNK13GlxMediaModel6parentERK11QModelIndex @ 29 NONAME
	_ZNK13GlxMediaModel8rowCountERK11QModelIndex @ 30 NONAME
	_ZTI13GlxMediaModel @ 31 NONAME
	_ZTV13GlxMediaModel @ 32 NONAME
	_ZN13GlxMediaModel13itemCorruptedEi @ 33 NONAME

