EXPORTS
	??1CGlxCommandHandlerFilterImagesOrVideos@@UAE@XZ @ 1 NONAME ; CGlxCommandHandlerFilterImagesOrVideos::~CGlxCommandHandlerFilterImagesOrVideos(void)
	?OfferKeyEventL@CGlxSingleGraphicPopupMenuStyleListBox@@UAE?AW4TKeyResponse@@ABUTKeyEvent@@W4TEventCode@@@Z @ 2 NONAME ; enum TKeyResponse CGlxSingleGraphicPopupMenuStyleListBox::OfferKeyEventL(struct TKeyEvent const &, enum TEventCode)
	??0CGlxMediaListAdaptor@@QAE@PBVMGlxMediaList@@H@Z @ 3 NONAME ; CGlxMediaListAdaptor::CGlxMediaListAdaptor(class MGlxMediaList const *, int)
	?NewL@CGlxCommandHandlerRename@@SAPAV1@PAVMGlxMediaListProvider@@H@Z @ 4 NONAME ; class CGlxCommandHandlerRename * CGlxCommandHandlerRename::NewL(class MGlxMediaListProvider *, int)
	?NewL@CGlxCommandHandlerSend@@SAPAV1@PAVMGlxMediaListProvider@@H@Z @ 5 NONAME ; class CGlxCommandHandlerSend * CGlxCommandHandlerSend::NewL(class MGlxMediaListProvider *, int)
	??1CGlxCommandHandlerNewMedia@@UAE@XZ @ 6 NONAME ; CGlxCommandHandlerNewMedia::~CGlxCommandHandlerNewMedia(void)
	??1CGlxCommandHandlerSave@@UAE@XZ @ 7 NONAME ; CGlxCommandHandlerSave::~CGlxCommandHandlerSave(void)
	?NewL@CGlxCommandHandlerDelete@@SAPAV1@PAVMGlxMediaListProvider@@HH@Z @ 8 NONAME ; class CGlxCommandHandlerDelete * CGlxCommandHandlerDelete::NewL(class MGlxMediaListProvider *, int, int)
	?NewL@CGlxCommandHandlerRotate@@SAPAV1@PAVMGlxMediaListProvider@@PAVMGlxLayoutOwner@@H@Z @ 9 NONAME ; class CGlxCommandHandlerRotate * CGlxCommandHandlerRotate::NewL(class MGlxMediaListProvider *, class MGlxLayoutOwner *, int)
	?ExecuteLD@CGlxMediaSelectionPopup@@QAEPAVCMPXCollectionPath@@AAV2@AAHHHPAVCMPXMedia@@@Z @ 10 NONAME ; class CMPXCollectionPath * CGlxMediaSelectionPopup::ExecuteLD(class CMPXCollectionPath &, int &, int, int, class CMPXMedia *)
	?OkToExit@CGlxCommandHandlerNewMedia@@UBEHXZ @ 11 NONAME ; int CGlxCommandHandlerNewMedia::OkToExit(void) const
	??1CGlxCommandHandlerBack@@UAE@XZ @ 12 NONAME ; CGlxCommandHandlerBack::~CGlxCommandHandlerBack(void)
	?NewPreviousViewCommandHandlerL@CGlxCommandHandlerBack@@SAPAV1@PAVMGlxMediaListProvider@@@Z @ 13 NONAME ; class CGlxCommandHandlerBack * CGlxCommandHandlerBack::NewPreviousViewCommandHandlerL(class MGlxMediaListProvider *)
	?NewL@CGlxCommandHandlerVideoPlayback@@SAPAV1@PAVMGlxMediaListProvider@@@Z @ 14 NONAME ; class CGlxCommandHandlerVideoPlayback * CGlxCommandHandlerVideoPlayback::NewL(class MGlxMediaListProvider *)
	??0TGlxHelpContext@@QAE@XZ @ 15 NONAME ; TGlxHelpContext::TGlxHelpContext(void)
	??1CGlxCommandHandlerSortOrder@@UAE@XZ @ 16 NONAME ; CGlxCommandHandlerSortOrder::~CGlxCommandHandlerSortOrder(void)
	??1CGlxCommandHandlerRemoveFrom@@UAE@XZ @ 17 NONAME ; CGlxCommandHandlerRemoveFrom::~CGlxCommandHandlerRemoveFrom(void)
	?NewAddToAlbumSingleClickCommandHandlerL@CGlxCommandHandlerAddToContainer@@SAPAV1@PAVMGlxMediaListProvider@@H@Z @ 18 NONAME ; class CGlxCommandHandlerAddToContainer * CGlxCommandHandlerAddToContainer::NewAddToAlbumSingleClickCommandHandlerL(class MGlxMediaListProvider *, int)
	?ImageUri@CGlxImageViewerManager@@QAEPAVHBufC16@@XZ @ 19 NONAME ; class HBufC16 * CGlxImageViewerManager::ImageUri(void)
	?NewL@CGlxCommandHandlerOpen@@SAPAV1@PAVMGlxMediaListProvider@@@Z @ 20 NONAME ; class CGlxCommandHandlerOpen * CGlxCommandHandlerOpen::NewL(class MGlxMediaListProvider *)
	??1CGlxCommandHandlerDelete@@UAE@XZ @ 21 NONAME ; CGlxCommandHandlerDelete::~CGlxCommandHandlerDelete(void)
	??1CGlxCommandHandlerDownload@@UAE@XZ @ 22 NONAME ; CGlxCommandHandlerDownload::~CGlxCommandHandlerDownload(void)
	?NewL@CGlxCommandHandlerSave@@SAPAV1@XZ @ 23 NONAME ; class CGlxCommandHandlerSave * CGlxCommandHandlerSave::NewL(void)
	??1CGlxCommandHandlerOpen@@UAE@XZ @ 24 NONAME ; CGlxCommandHandlerOpen::~CGlxCommandHandlerOpen(void)
	?NewL@CGlxCommandHandlerSlideshow@@SAPAV1@PAVMGlxMediaListProvider@@HH@Z @ 25 NONAME ; class CGlxCommandHandlerSlideshow * CGlxCommandHandlerSlideshow::NewL(class MGlxMediaListProvider *, int, int)
	?IsPrivate@CGlxImageViewerManager@@QAEHXZ @ 26 NONAME ; int CGlxImageViewerManager::IsPrivate(void)
	?NewL@CGlxCommandHandlerAiwShareOnOvi@@SAPAV1@PAVMGlxMediaListProvider@@H@Z @ 27 NONAME ; class CGlxCommandHandlerAiwShareOnOvi * CGlxCommandHandlerAiwShareOnOvi::NewL(class MGlxMediaListProvider *, int)
	?NewAddToAlbumCommandHandlerL@CGlxCommandHandlerAddToContainer@@SAPAV1@PAVMGlxMediaListProvider@@H@Z @ 28 NONAME ; class CGlxCommandHandlerAddToContainer * CGlxCommandHandlerAddToContainer::NewAddToAlbumCommandHandlerL(class MGlxMediaListProvider *, int)
	?MdcaPoint@CGlxMediaListAdaptor@@UBE?AVTPtrC16@@H@Z @ 29 NONAME ; class TPtrC16 CGlxMediaListAdaptor::MdcaPoint(int) const
	?NewL@CGlxCommandHandlerDownload@@SAPAV1@XZ @ 30 NONAME ; class CGlxCommandHandlerDownload * CGlxCommandHandlerDownload::NewL(void)
	??1CGlxCommandHandlerHelp@@UAE@XZ @ 31 NONAME ; CGlxCommandHandlerHelp::~CGlxCommandHandlerHelp(void)
	?BypassFiltersForExecute@CGlxCommandHandlerNewMedia@@UBEHXZ @ 32 NONAME ; int CGlxCommandHandlerNewMedia::BypassFiltersForExecute(void) const
	?NewL@CGlxCommandHandlerRemoveFrom@@SAPAV1@PAVMGlxMediaListProvider@@W4TMPXGeneralCategory@@@Z @ 33 NONAME ; class CGlxCommandHandlerRemoveFrom * CGlxCommandHandlerRemoveFrom::NewL(class MGlxMediaListProvider *, enum TMPXGeneralCategory)
	?NewL@CGlxCommandHandlerDetails@@SAPAV1@PAVMGlxMediaListProvider@@@Z @ 34 NONAME ; class CGlxCommandHandlerDetails * CGlxCommandHandlerDetails::NewL(class MGlxMediaListProvider *)
	?NewL@CGlxCommandHandlerHelp@@SAPAV1@VTGlxHelpContext@@@Z @ 35 NONAME ; class CGlxCommandHandlerHelp * CGlxCommandHandlerHelp::NewL(class TGlxHelpContext)
	?ExecuteLD@CGlxCommandHandlerNewMedia@@QAEHAAVTGlxMediaId@@@Z @ 36 NONAME ; int CGlxCommandHandlerNewMedia::ExecuteLD(class TGlxMediaId &)
	?HandleItemAddedL@CGlxCommandHandlerNewMedia@@MAEXHHPAVMGlxMediaList@@@Z @ 37 NONAME ; void CGlxCommandHandlerNewMedia::HandleItemAddedL(int, int, class MGlxMediaList *)
	?IncrementRefCount@CGlxImageViewerManager@@QAEXXZ @ 38 NONAME ; void CGlxImageViewerManager::IncrementRefCount(void)
	?NewL@CGlxCommandHandlerUpload@@SAPAV1@PAVMGlxMediaListProvider@@H@Z @ 39 NONAME ; class CGlxCommandHandlerUpload * CGlxCommandHandlerUpload::NewL(class MGlxMediaListProvider *, int)
	??1CGlxCommandHandlerUpload@@UAE@XZ @ 40 NONAME ; CGlxCommandHandlerUpload::~CGlxCommandHandlerUpload(void)
	??1CGlxCommandHandlerSlideshow@@UAE@XZ @ 41 NONAME ; CGlxCommandHandlerSlideshow::~CGlxCommandHandlerSlideshow(void)
	?NewL@CGlxCommandHandlerAiwShowMap@@SAPAV1@PAVMGlxMediaListProvider@@H@Z @ 42 NONAME ; class CGlxCommandHandlerAiwShowMap * CGlxCommandHandlerAiwShowMap::NewL(class MGlxMediaListProvider *, int)
	??1CGlxCommandHandlerAddToContainer@@UAE@XZ @ 43 NONAME ; CGlxCommandHandlerAddToContainer::~CGlxCommandHandlerAddToContainer(void)
	??0CGlxMediaSelectionPopup@@QAE@XZ @ 44 NONAME ; CGlxMediaSelectionPopup::CGlxMediaSelectionPopup(void)
	?NewL@CGlxCommandHandlerNewMedia@@SAPAV1@PAVMGlxMediaListProvider@@@Z @ 45 NONAME ; class CGlxCommandHandlerNewMedia * CGlxCommandHandlerNewMedia::NewL(class MGlxMediaListProvider *)
	?NewL@CGlxCommandHandlerCopyAndMove@@SAPAV1@PAVMGlxMediaListProvider@@H@Z @ 46 NONAME ; class CGlxCommandHandlerCopyAndMove * CGlxCommandHandlerCopyAndMove::NewL(class MGlxMediaListProvider *, int)
	??1CGlxCommandHandlerCopyAndMove@@UAE@XZ @ 47 NONAME ; CGlxCommandHandlerCopyAndMove::~CGlxCommandHandlerCopyAndMove(void)
	?SetContainerId@CGlxCommandHandlerRemoveFrom@@QAEXVTGlxMediaId@@@Z @ 48 NONAME ; void CGlxCommandHandlerRemoveFrom::SetContainerId(class TGlxMediaId)
	?MdcaCount@CGlxMediaListAdaptor@@UBEHXZ @ 49 NONAME ; int CGlxMediaListAdaptor::MdcaCount(void) const
	?NewL@CGlxCommandHandlerFilterImagesOrVideos@@SAPAV1@PAVMGlxMediaListProvider@@@Z @ 50 NONAME ; class CGlxCommandHandlerFilterImagesOrVideos * CGlxCommandHandlerFilterImagesOrVideos::NewL(class MGlxMediaListProvider *)
	?NewL@CGlxCommandHandlerAiwShowMapHardKey@@SAPAV1@PAVMGlxMediaListProvider@@H@Z @ 51 NONAME ; class CGlxCommandHandlerAiwShowMapHardKey * CGlxCommandHandlerAiwShowMapHardKey::NewL(class MGlxMediaListProvider *, int)
	?NewL@CGlxCommandHandlerHideUi@@SAPAV1@XZ @ 52 NONAME ; class CGlxCommandHandlerHideUi * CGlxCommandHandlerHideUi::NewL(void)
	??1CGlxCommandHandlerSend@@UAE@XZ @ 53 NONAME ; CGlxCommandHandlerSend::~CGlxCommandHandlerSend(void)
	?NewL@CGlxCommandHandlerAiwAssign@@SAPAV1@PAVMGlxMediaListProvider@@H@Z @ 54 NONAME ; class CGlxCommandHandlerAiwAssign * CGlxCommandHandlerAiwAssign::NewL(class MGlxMediaListProvider *, int)
	?NewAddToTagCommandHandlerL@CGlxCommandHandlerAddToContainer@@SAPAV1@PAVMGlxMediaListProvider@@H@Z @ 55 NONAME ; class CGlxCommandHandlerAddToContainer * CGlxCommandHandlerAddToContainer::NewAddToTagCommandHandlerL(class MGlxMediaListProvider *, int)
	??1CGlxCommandHandlerDetails@@UAE@XZ @ 56 NONAME ; CGlxCommandHandlerDetails::~CGlxCommandHandlerDetails(void)
	?NewAddToTagSingleClickCommandHandlerL@CGlxCommandHandlerAddToContainer@@SAPAV1@PAVMGlxMediaListProvider@@H@Z @ 57 NONAME ; class CGlxCommandHandlerAddToContainer * CGlxCommandHandlerAddToContainer::NewAddToTagSingleClickCommandHandlerL(class MGlxMediaListProvider *, int)
	??1CGlxCommandHandlerVideoPlayback@@UAE@XZ @ 58 NONAME ; CGlxCommandHandlerVideoPlayback::~CGlxCommandHandlerVideoPlayback(void)
	??1CGlxCommandHandlerRename@@UAE@XZ @ 59 NONAME ; CGlxCommandHandlerRename::~CGlxCommandHandlerRename(void)
	?NewL@CGlxCommandHandlerAddToContainer@@SAPAV1@PAVMGlxMediaListProvider@@HH@Z @ 60 NONAME ; class CGlxCommandHandlerAddToContainer * CGlxCommandHandlerAddToContainer::NewL(class MGlxMediaListProvider *, int, int)
	?ImageFileHandle@CGlxImageViewerManager@@QBEAAVRFile64@@XZ @ 61 NONAME ; class RFile64 & CGlxImageViewerManager::ImageFileHandle(void) const
	?NewL@CGlxCommandHandlerAiwPrintPreview@@SAPAV1@PAVMGlxMediaListProvider@@H@Z @ 62 NONAME ; class CGlxCommandHandlerAiwPrintPreview * CGlxCommandHandlerAiwPrintPreview::NewL(class MGlxMediaListProvider *, int)
	?NewL@CGlxCommandHandlerAiwEdit@@SAPAV1@PAVMGlxMediaListProvider@@HH@Z @ 63 NONAME ; class CGlxCommandHandlerAiwEdit * CGlxCommandHandlerAiwEdit::NewL(class MGlxMediaListProvider *, int, int)
	?NewL@CGlxCommandHandlerSortOrder@@SAPAV1@PAVMGlxMediaListProvider@@K@Z @ 64 NONAME ; class CGlxCommandHandlerSortOrder * CGlxCommandHandlerSortOrder::NewL(class MGlxMediaListProvider *, unsigned long)
	?NewBackCommandHandlerL@CGlxCommandHandlerBack@@SAPAV1@XZ @ 65 NONAME ; class CGlxCommandHandlerBack * CGlxCommandHandlerBack::NewBackCommandHandlerL(void)
	?NewAddToFavCommandHandlerL@CGlxCommandHandlerAddToContainer@@SAPAV1@PAVMGlxMediaListProvider@@H@Z @ 66 NONAME ; class CGlxCommandHandlerAddToContainer * CGlxCommandHandlerAddToContainer::NewAddToFavCommandHandlerL(class MGlxMediaListProvider *, int)
	?NewContainerPreviousViewCommandHandlerL@CGlxCommandHandlerBack@@SAPAV1@PAVMGlxMediaListProvider@@H@Z @ 67 NONAME ; class CGlxCommandHandlerBack * CGlxCommandHandlerBack::NewContainerPreviousViewCommandHandlerL(class MGlxMediaListProvider *, int)

