EXPORTS
	_ZN14GlxViewManager10launchViewEiP18QAbstractItemModel @ 1 NONAME
	_ZN14GlxViewManager10launchViewEiP18QAbstractItemModel9GlxEffect13GlxViewEffect @ 2 NONAME
	_ZN14GlxViewManager10setupItemsEv @ 3 NONAME
	_ZN14GlxViewManager11cancelTimerEv @ 4 NONAME
	_ZN14GlxViewManager11checkMarkedEv @ 5 NONAME
	_ZN14GlxViewManager11destroyViewEi @ 6 NONAME
	_ZN14GlxViewManager11qt_metacallEN11QMetaObject4CallEiPPv @ 7 NONAME
	_ZN14GlxViewManager11qt_metacastEPKc @ 8 NONAME
	_ZN14GlxViewManager11resolveViewEi @ 9 NONAME
	_ZN14GlxViewManager12activateViewEv @ 10 NONAME
	_ZN14GlxViewManager12handleActionEv @ 11 NONAME
	_ZN14GlxViewManager13actionProcessEi @ 12 NONAME
	_ZN14GlxViewManager13addConnectionEv @ 13 NONAME
	_ZN14GlxViewManager13createActionsEv @ 14 NONAME
	_ZN14GlxViewManager13createToolBarEv @ 15 NONAME
	_ZN14GlxViewManager14deActivateViewEv @ 16 NONAME
	_ZN14GlxViewManager14effectFinishedEv @ 17 NONAME
	_ZN14GlxViewManager15actionTriggeredEi @ 18 NONAME
	_ZN14GlxViewManager15exitMarkingModeEi @ 19 NONAME
	_ZN14GlxViewManager15externalCommandEi @ 20 NONAME
	_ZN14GlxViewManager16enterMarkingModeEi @ 21 NONAME
	_ZN14GlxViewManager16handleMenuActionEi @ 22 NONAME
	_ZN14GlxViewManager16handleUserActionEii @ 23 NONAME
	_ZN14GlxViewManager16removeConnectionEv @ 24 NONAME
	_ZN14GlxViewManager16staticMetaObjectE @ 25 NONAME DATA 16
	_ZN14GlxViewManager17getSelectionModelEi @ 26 NONAME
	_ZN14GlxViewManager17launchApplicationEiP18QAbstractItemModel @ 27 NONAME
	_ZN14GlxViewManager17updateToolBarIconEi @ 28 NONAME
	_ZN14GlxViewManager19getStaticMetaObjectEv @ 29 NONAME
	_ZN14GlxViewManager20addBackSoftKeyActionEv @ 30 NONAME
	_ZN14GlxViewManager20launchProgressDialogEi @ 31 NONAME
	_ZN14GlxViewManager20updateProgressDialogEi @ 32 NONAME
	_ZN14GlxViewManager21deactivateCurrentViewEv @ 33 NONAME
	_ZN14GlxViewManager24createMarkingModeActionsEv @ 34 NONAME
	_ZN14GlxViewManager24createMarkingModeToolBarEv @ 35 NONAME
	_ZN14GlxViewManager25itemSpecificMenuTriggeredEi7QPointF @ 36 NONAME
	_ZN14GlxViewManager8findViewEi @ 37 NONAME
	_ZN14GlxViewManager8setModelEP18QAbstractItemModel @ 38 NONAME
	_ZN14GlxViewManagerC1Ev @ 39 NONAME
	_ZN14GlxViewManagerC2Ev @ 40 NONAME
	_ZN14GlxViewManagerD0Ev @ 41 NONAME
	_ZN14GlxViewManagerD1Ev @ 42 NONAME
	_ZN14GlxViewManagerD2Ev @ 43 NONAME
	_ZNK14GlxViewManager10metaObjectEv @ 44 NONAME
	_ZNK14GlxViewManager11orientationEv @ 45 NONAME
	_ZTI14GlxViewManager @ 46 NONAME
	_ZTV14GlxViewManager @ 47 NONAME
	_ZN14GlxViewManager18hideProgressDialogEv @ 48 NONAME

