EXPORTS
	?PostError@CGlxErrorPoster@@QAEXH@Z @ 1 NONAME ; void CGlxErrorPoster::PostError(int)
	?InstanceL@CGlxErrorPoster@@SAPAV1@XZ @ 2 NONAME ; class CGlxErrorPoster * CGlxErrorPoster::InstanceL(void)
	?ActivatePreviousViewL@CGlxNavigationalState@@QAEXXZ @ 3 NONAME ; void CGlxNavigationalState::ActivatePreviousViewL(void)
	?RemoveObserver@CGlxNavigationalState@@QAEXAAVMGlxNavigationalStateObserver@@@Z @ 4 NONAME ; void CGlxNavigationalState::RemoveObserver(class MGlxNavigationalStateObserver &)
	?PossToPixels@CGlxResolutionUtility@@QBEMABM@Z @ 5 NONAME ; float CGlxResolutionUtility::PossToPixels(float const &) const
	?Close@CGlxNavigationalState@@QAEXXZ @ 6 NONAME ; void CGlxNavigationalState::Close(void)
	?AddObserverL@CGlxNavigationalState@@QAEXAAVMGlxNavigationalStateObserver@@@Z @ 7 NONAME ; void CGlxNavigationalState::AddObserverL(class MGlxNavigationalStateObserver &)
	?Close@CGlxResolutionUtility@@QAEXXZ @ 8 NONAME ; void CGlxResolutionUtility::Close(void)
	?StartingLevel@CGlxNavigationalState@@QAEHXZ @ 9 NONAME ; int CGlxNavigationalState::StartingLevel(void)
	?NavigateToL@CGlxNavigationalState@@QAEXABVCMPXCollectionPath@@@Z @ 10 NONAME ; void CGlxNavigationalState::NavigateToL(class CMPXCollectionPath const &)
	?NavigateToParentL@CGlxNavigationalState@@QAEXXZ @ 11 NONAME ; void CGlxNavigationalState::NavigateToParentL(void)
	?NavigateToChildL@CGlxNavigationalState@@QAEXABVTGlxMediaId@@@Z @ 12 NONAME ; void CGlxNavigationalState::NavigateToChildL(class TGlxMediaId const &)
	?NewL@CGlxResolutionManager@@SAPAV1@XZ @ 13 NONAME ; class CGlxResolutionManager * CGlxResolutionManager::NewL(void)
	?SetStartingLevel@CGlxNavigationalState@@QAEXH@Z @ 14 NONAME ; void CGlxNavigationalState::SetStartingLevel(int)
	??1CGlxResolutionManager@@UAE@XZ @ 15 NONAME ; CGlxResolutionManager::~CGlxResolutionManager(void)
	?ViewingMode@CGlxNavigationalState@@QAE?AW4TViewingMode@NGlxNavigationalState@@XZ @ 16 NONAME ; enum NGlxNavigationalState::TViewingMode CGlxNavigationalState::ViewingMode(void)
	?SetBackExitStatus@CGlxNavigationalState@@QAEXH@Z @ 17 NONAME ; void CGlxNavigationalState::SetBackExitStatus(int)
	?AddObserverL@CGlxResolutionUtility@@QAEXAAVMGlxResolutionChangeObserver@@@Z @ 18 NONAME ; void CGlxResolutionUtility::AddObserverL(class MGlxResolutionChangeObserver &)
	?Close@CGlxErrorPoster@@QAEXXZ @ 19 NONAME ; void CGlxErrorPoster::Close(void)
	?RemoveObserver@CGlxResolutionUtility@@QAEXAAVMGlxResolutionChangeObserver@@@Z @ 20 NONAME ; void CGlxResolutionUtility::RemoveObserver(class MGlxResolutionChangeObserver &)
	?PixelsToPoss@CGlxResolutionUtility@@QBEMABM@Z @ 21 NONAME ; float CGlxResolutionUtility::PixelsToPoss(float const &) const
	?BackExitStatus@CGlxNavigationalState@@QAEHXZ @ 22 NONAME ; int CGlxNavigationalState::BackExitStatus(void)
	?PublishStateL@NGlxZoomStatePublisher@@YAXH@Z @ 23 NONAME ; void NGlxZoomStatePublisher::PublishStateL(int)
	?StateLC@CGlxNavigationalState@@QBEPAVCMPXCollectionPath@@XZ @ 24 NONAME ; class CMPXCollectionPath * CGlxNavigationalState::StateLC(void) const
	?SetToViewMode@CGlxNavigationalState@@QAEXXZ @ 25 NONAME ; void CGlxNavigationalState::SetToViewMode(void)
	?InstanceL@CGlxNavigationalState@@SAPAV1@XZ @ 26 NONAME ; class CGlxNavigationalState * CGlxNavigationalState::InstanceL(void)
	?ScreenSize@CGlxResolutionUtility@@QBE?AVTSize@@XZ @ 27 NONAME ; class TSize CGlxResolutionUtility::ScreenSize(void) const
	?InstanceL@CGlxResolutionUtility@@SAPAV1@XZ @ 28 NONAME ; class CGlxResolutionUtility * CGlxResolutionUtility::InstanceL(void)
	?SetScreenSizeL@CGlxResolutionManager@@QAEXVTSize@@@Z @ 29 NONAME ; void CGlxResolutionManager::SetScreenSizeL(class TSize)

